

Microchip MPLAB XC8 Assembler V2.31 build 20201012212115 
                                                                                               Tue Jul 27 10:40:53 2021

Microchip MPLAB XC8 C Compiler v2.31 (Free license) build 20201012212115 Og1 
     1                           	processor	16F887
     2                           	pagewidth 120
     3                           	opt	flic
     4                           	psect	strings,global,class=STRING,delta=2,noexec
     5                           	psect	cinit,global,class=CODE,merge=1,delta=2
     6                           	psect	bssCOMMON,global,class=COMMON,space=1,delta=1,noexec
     7                           	psect	bssBANK0,global,class=BANK0,space=1,delta=1,noexec
     8                           	psect	bssBANK1,global,class=BANK1,space=1,delta=1,noexec
     9                           	psect	cstackBANK1,global,class=BANK1,space=1,delta=1,noexec
    10                           	psect	cstackCOMMON,global,class=COMMON,space=1,delta=1,noexec
    11                           	psect	cstackBANK0,global,class=BANK0,space=1,delta=1,noexec
    12                           	psect	maintext,global,class=CODE,split=1,delta=2
    13                           	psect	text1,local,class=CODE,merge=1,delta=2,group=3
    14                           	psect	text2,local,class=CODE,merge=1,delta=2
    15                           	psect	text3,local,class=CODE,merge=1,delta=2
    16                           	psect	text4,local,class=CODE,merge=1,delta=2,group=3
    17                           	psect	text5,local,class=CODE,merge=1,delta=2,group=1
    18                           	psect	text6,local,class=CODE,merge=1,delta=2
    19                           	psect	text7,local,class=CODE,merge=1,delta=2,group=2
    20                           	psect	text8,local,class=CODE,merge=1,delta=2,group=2
    21                           	psect	text9,local,class=CODE,merge=1,delta=2
    22                           	psect	text10,local,class=CODE,merge=1,delta=2,group=2
    23                           	psect	text11,local,class=CODE,merge=1,delta=2,group=2
    24                           	psect	text12,local,class=CODE,merge=1,delta=2,group=2
    25                           	psect	text13,local,class=CODE,merge=1,delta=2,group=2
    26                           	psect	text14,local,class=CODE,merge=1,delta=2,group=2
    27                           	psect	text15,local,class=CODE,merge=1,delta=2,group=2
    28                           	psect	text16,local,class=CODE,merge=1,delta=2
    29                           	psect	text17,local,class=CODE,merge=1,delta=2
    30                           	psect	text18,local,class=CODE,merge=1,delta=2
    31                           	psect	text19,local,class=CODE,merge=1,delta=2
    32                           	psect	text20,local,class=CODE,merge=1,delta=2
    33                           	psect	text21,local,class=CODE,merge=1,delta=2
    34                           	psect	text22,local,class=CODE,merge=1,delta=2
    35                           	psect	text23,local,class=CODE,merge=1,delta=2
    36                           	psect	intentry,global,class=CODE,delta=2
    37                           	psect	functab,global,class=ENTRY,delta=2
    38                           	psect	config,global,abs,ovrld,class=CONFIG,space=4,delta=2,noexec
    39                           	dabs	1,0x7E,2
    40  0000                     
    41                           ; Version 2.20
    42                           ; Generated 12/02/2020 GMT
    43                           ; 
    44                           ; Copyright © 2020, Microchip Technology Inc. and its subsidiaries ("Microchip")
    45                           ; All rights reserved.
    46                           ; 
    47                           ; This software is developed by Microchip Technology Inc. and its subsidiaries ("Microch
      +                          ip").
    48                           ; 
    49                           ; Redistribution and use in source and binary forms, with or without modification, are
    50                           ; permitted provided that the following conditions are met:
    51                           ; 
    52                           ;     1. Redistributions of source code must retain the above copyright notice, this lis
      +                          t of
    53                           ;        conditions and the following disclaimer.
    54                           ; 
    55                           ;     2. Redistributions in binary form must reproduce the above copyright notice, this 
      +                          list
    56                           ;        of conditions and the following disclaimer in the documentation and/or other
    57                           ;        materials provided with the distribution.
    58                           ; 
    59                           ;     3. Microchip's name may not be used to endorse or promote products derived from th
      +                          is
    60                           ;        software without specific prior written permission.
    61                           ; 
    62                           ; THIS SOFTWARE IS PROVIDED BY MICROCHIP "AS IS" AND ANY EXPRESS OR IMPLIED WARRANTIES,
    63                           ; INCLUDING, BUT NOT LIMITED TO, THE IMPLIED WARRANTIES OF MERCHANTABILITY AND FITNESS F
      +                          OR
    64                           ; PURPOSE ARE DISCLAIMED.  IN NO EVENT SHALL MICROCHIP BE LIABLE FOR ANY DIRECT, INDIREC
      +                          T,
    65                           ; INCIDENTAL, SPECIAL, EXEMPLARY, OR CONSEQUENTIAL DAMAGES (INCLUDING BUT NOT LIMITED TO
    66                           ; PROCUREMENT OF SUBSTITUTE GOODS OR SERVICES; LOSS OF USE, DATA OR PROFITS; OR BUSINESS
    67                           ; INTERRUPTION) HOWSOEVER CAUSED AND ON ANY THEORY OF LIABILITY, WHETHER IN CONTRACT, ST
      +                          RICT
    68                           ; LIABILITY, OR TORT (INCLUDING NEGLIGENCE OR OTHERWISE) ARISING IN ANY WAY OUT OF THE U
      +                          SE OF
    69                           ; THIS SOFTWARE, EVEN IF ADVISED OF THE POSSIBILITY OF SUCH DAMAGE.
    70                           ; 
    71                           ; 
    72                           ; Code-generator required, PIC16F887 Definitions
    73                           ; 
    74                           ; SFR Addresses
    75  0000                     	;# 
    76  0001                     	;# 
    77  0002                     	;# 
    78  0003                     	;# 
    79  0004                     	;# 
    80  0005                     	;# 
    81  0006                     	;# 
    82  0007                     	;# 
    83  0008                     	;# 
    84  0009                     	;# 
    85  000A                     	;# 
    86  000B                     	;# 
    87  000C                     	;# 
    88  000D                     	;# 
    89  000E                     	;# 
    90  000E                     	;# 
    91  000F                     	;# 
    92  0010                     	;# 
    93  0011                     	;# 
    94  0012                     	;# 
    95  0013                     	;# 
    96  0014                     	;# 
    97  0015                     	;# 
    98  0015                     	;# 
    99  0016                     	;# 
   100  0017                     	;# 
   101  0018                     	;# 
   102  0019                     	;# 
   103  001A                     	;# 
   104  001B                     	;# 
   105  001B                     	;# 
   106  001C                     	;# 
   107  001D                     	;# 
   108  001E                     	;# 
   109  001F                     	;# 
   110  0081                     	;# 
   111  0085                     	;# 
   112  0086                     	;# 
   113  0087                     	;# 
   114  0088                     	;# 
   115  0089                     	;# 
   116  008C                     	;# 
   117  008D                     	;# 
   118  008E                     	;# 
   119  008F                     	;# 
   120  0090                     	;# 
   121  0091                     	;# 
   122  0092                     	;# 
   123  0093                     	;# 
   124  0093                     	;# 
   125  0093                     	;# 
   126  0094                     	;# 
   127  0095                     	;# 
   128  0096                     	;# 
   129  0097                     	;# 
   130  0098                     	;# 
   131  0099                     	;# 
   132  009A                     	;# 
   133  009B                     	;# 
   134  009C                     	;# 
   135  009D                     	;# 
   136  009E                     	;# 
   137  009F                     	;# 
   138  0105                     	;# 
   139  0107                     	;# 
   140  0108                     	;# 
   141  0109                     	;# 
   142  010C                     	;# 
   143  010C                     	;# 
   144  010D                     	;# 
   145  010E                     	;# 
   146  010F                     	;# 
   147  0185                     	;# 
   148  0187                     	;# 
   149  0188                     	;# 
   150  0189                     	;# 
   151  018C                     	;# 
   152  018D                     	;# 
   153  0000                     	;# 
   154  0001                     	;# 
   155  0002                     	;# 
   156  0003                     	;# 
   157  0004                     	;# 
   158  0005                     	;# 
   159  0006                     	;# 
   160  0007                     	;# 
   161  0008                     	;# 
   162  0009                     	;# 
   163  000A                     	;# 
   164  000B                     	;# 
   165  000C                     	;# 
   166  000D                     	;# 
   167  000E                     	;# 
   168  000E                     	;# 
   169  000F                     	;# 
   170  0010                     	;# 
   171  0011                     	;# 
   172  0012                     	;# 
   173  0013                     	;# 
   174  0014                     	;# 
   175  0015                     	;# 
   176  0015                     	;# 
   177  0016                     	;# 
   178  0017                     	;# 
   179  0018                     	;# 
   180  0019                     	;# 
   181  001A                     	;# 
   182  001B                     	;# 
   183  001B                     	;# 
   184  001C                     	;# 
   185  001D                     	;# 
   186  001E                     	;# 
   187  001F                     	;# 
   188  0081                     	;# 
   189  0085                     	;# 
   190  0086                     	;# 
   191  0087                     	;# 
   192  0088                     	;# 
   193  0089                     	;# 
   194  008C                     	;# 
   195  008D                     	;# 
   196  008E                     	;# 
   197  008F                     	;# 
   198  0090                     	;# 
   199  0091                     	;# 
   200  0092                     	;# 
   201  0093                     	;# 
   202  0093                     	;# 
   203  0093                     	;# 
   204  0094                     	;# 
   205  0095                     	;# 
   206  0096                     	;# 
   207  0097                     	;# 
   208  0098                     	;# 
   209  0099                     	;# 
   210  009A                     	;# 
   211  009B                     	;# 
   212  009C                     	;# 
   213  009D                     	;# 
   214  009E                     	;# 
   215  009F                     	;# 
   216  0105                     	;# 
   217  0107                     	;# 
   218  0108                     	;# 
   219  0109                     	;# 
   220  010C                     	;# 
   221  010C                     	;# 
   222  010D                     	;# 
   223  010E                     	;# 
   224  010F                     	;# 
   225  0185                     	;# 
   226  0187                     	;# 
   227  0188                     	;# 
   228  0189                     	;# 
   229  018C                     	;# 
   230  018D                     	;# 
   231  0000                     	;# 
   232  0001                     	;# 
   233  0002                     	;# 
   234  0003                     	;# 
   235  0004                     	;# 
   236  0005                     	;# 
   237  0006                     	;# 
   238  0007                     	;# 
   239  0008                     	;# 
   240  0009                     	;# 
   241  000A                     	;# 
   242  000B                     	;# 
   243  000C                     	;# 
   244  000D                     	;# 
   245  000E                     	;# 
   246  000E                     	;# 
   247  000F                     	;# 
   248  0010                     	;# 
   249  0011                     	;# 
   250  0012                     	;# 
   251  0013                     	;# 
   252  0014                     	;# 
   253  0015                     	;# 
   254  0015                     	;# 
   255  0016                     	;# 
   256  0017                     	;# 
   257  0018                     	;# 
   258  0019                     	;# 
   259  001A                     	;# 
   260  001B                     	;# 
   261  001B                     	;# 
   262  001C                     	;# 
   263  001D                     	;# 
   264  001E                     	;# 
   265  001F                     	;# 
   266  0081                     	;# 
   267  0085                     	;# 
   268  0086                     	;# 
   269  0087                     	;# 
   270  0088                     	;# 
   271  0089                     	;# 
   272  008C                     	;# 
   273  008D                     	;# 
   274  008E                     	;# 
   275  008F                     	;# 
   276  0090                     	;# 
   277  0091                     	;# 
   278  0092                     	;# 
   279  0093                     	;# 
   280  0093                     	;# 
   281  0093                     	;# 
   282  0094                     	;# 
   283  0095                     	;# 
   284  0096                     	;# 
   285  0097                     	;# 
   286  0098                     	;# 
   287  0099                     	;# 
   288  009A                     	;# 
   289  009B                     	;# 
   290  009C                     	;# 
   291  009D                     	;# 
   292  009E                     	;# 
   293  009F                     	;# 
   294  0105                     	;# 
   295  0107                     	;# 
   296  0108                     	;# 
   297  0109                     	;# 
   298  010C                     	;# 
   299  010C                     	;# 
   300  010D                     	;# 
   301  010E                     	;# 
   302  010F                     	;# 
   303  0185                     	;# 
   304  0187                     	;# 
   305  0188                     	;# 
   306  0189                     	;# 
   307  018C                     	;# 
   308  018D                     	;# 
   309  0000                     	;# 
   310  0001                     	;# 
   311  0002                     	;# 
   312  0003                     	;# 
   313  0004                     	;# 
   314  0005                     	;# 
   315  0006                     	;# 
   316  0007                     	;# 
   317  0008                     	;# 
   318  0009                     	;# 
   319  000A                     	;# 
   320  000B                     	;# 
   321  000C                     	;# 
   322  000D                     	;# 
   323  000E                     	;# 
   324  000E                     	;# 
   325  000F                     	;# 
   326  0010                     	;# 
   327  0011                     	;# 
   328  0012                     	;# 
   329  0013                     	;# 
   330  0014                     	;# 
   331  0015                     	;# 
   332  0015                     	;# 
   333  0016                     	;# 
   334  0017                     	;# 
   335  0018                     	;# 
   336  0019                     	;# 
   337  001A                     	;# 
   338  001B                     	;# 
   339  001B                     	;# 
   340  001C                     	;# 
   341  001D                     	;# 
   342  001E                     	;# 
   343  001F                     	;# 
   344  0081                     	;# 
   345  0085                     	;# 
   346  0086                     	;# 
   347  0087                     	;# 
   348  0088                     	;# 
   349  0089                     	;# 
   350  008C                     	;# 
   351  008D                     	;# 
   352  008E                     	;# 
   353  008F                     	;# 
   354  0090                     	;# 
   355  0091                     	;# 
   356  0092                     	;# 
   357  0093                     	;# 
   358  0093                     	;# 
   359  0093                     	;# 
   360  0094                     	;# 
   361  0095                     	;# 
   362  0096                     	;# 
   363  0097                     	;# 
   364  0098                     	;# 
   365  0099                     	;# 
   366  009A                     	;# 
   367  009B                     	;# 
   368  009C                     	;# 
   369  009D                     	;# 
   370  009E                     	;# 
   371  009F                     	;# 
   372  0105                     	;# 
   373  0107                     	;# 
   374  0108                     	;# 
   375  0109                     	;# 
   376  010C                     	;# 
   377  010C                     	;# 
   378  010D                     	;# 
   379  010E                     	;# 
   380  010F                     	;# 
   381  0185                     	;# 
   382  0187                     	;# 
   383  0188                     	;# 
   384  0189                     	;# 
   385  018C                     	;# 
   386  018D                     	;# 
   387  0000                     	;# 
   388  0001                     	;# 
   389  0002                     	;# 
   390  0003                     	;# 
   391  0004                     	;# 
   392  0005                     	;# 
   393  0006                     	;# 
   394  0007                     	;# 
   395  0008                     	;# 
   396  0009                     	;# 
   397  000A                     	;# 
   398  000B                     	;# 
   399  000C                     	;# 
   400  000D                     	;# 
   401  000E                     	;# 
   402  000E                     	;# 
   403  000F                     	;# 
   404  0010                     	;# 
   405  0011                     	;# 
   406  0012                     	;# 
   407  0013                     	;# 
   408  0014                     	;# 
   409  0015                     	;# 
   410  0015                     	;# 
   411  0016                     	;# 
   412  0017                     	;# 
   413  0018                     	;# 
   414  0019                     	;# 
   415  001A                     	;# 
   416  001B                     	;# 
   417  001B                     	;# 
   418  001C                     	;# 
   419  001D                     	;# 
   420  001E                     	;# 
   421  001F                     	;# 
   422  0081                     	;# 
   423  0085                     	;# 
   424  0086                     	;# 
   425  0087                     	;# 
   426  0088                     	;# 
   427  0089                     	;# 
   428  008C                     	;# 
   429  008D                     	;# 
   430  008E                     	;# 
   431  008F                     	;# 
   432  0090                     	;# 
   433  0091                     	;# 
   434  0092                     	;# 
   435  0093                     	;# 
   436  0093                     	;# 
   437  0093                     	;# 
   438  0094                     	;# 
   439  0095                     	;# 
   440  0096                     	;# 
   441  0097                     	;# 
   442  0098                     	;# 
   443  0099                     	;# 
   444  009A                     	;# 
   445  009B                     	;# 
   446  009C                     	;# 
   447  009D                     	;# 
   448  009E                     	;# 
   449  009F                     	;# 
   450  0105                     	;# 
   451  0107                     	;# 
   452  0108                     	;# 
   453  0109                     	;# 
   454  010C                     	;# 
   455  010C                     	;# 
   456  010D                     	;# 
   457  010E                     	;# 
   458  010F                     	;# 
   459  0185                     	;# 
   460  0187                     	;# 
   461  0188                     	;# 
   462  0189                     	;# 
   463  018C                     	;# 
   464  018D                     	;# 
   465                           
   466                           	psect	strings
   467  0800                     __pstrings:
   468  0800                     stringtab:
   469  0800                     __stringtab:
   470                           
   471                           ;	String table - string pointers are 1 byte each
   472  0800  1BFF               	btfsc	btemp+1,7
   473  0801  280A               	ljmp	stringcode
   474  0802  1383               	bcf	3,7
   475  0803  187F               	btfsc	btemp+1,0
   476  0804  1783               	bsf	3,7
   477  0805  0800               	movf	0,w
   478  0806  0A84               	incf	4,f
   479  0807  1903               	skipnz
   480  0808  0AFF               	incf	btemp+1,f
   481  0809  0008               	return
   482  080A                     stringcode:
   483  080A                     stringdir:
   484  080A  3008               	movlw	high stringdir
   485  080B  008A               	movwf	10
   486  080C  0804               	movf	4,w
   487  080D  0A84               	incf	4,f
   488  080E  0782               	addwf	2,f
   489  080F                     __stringbase:
   490  080F  3400               	retlw	0
   491  0810                     __end_of__stringtab:
   492  0810                     _dpowers:
   493  0810  3401               	retlw	1
   494  0811  3400               	retlw	0
   495  0812  340A               	retlw	10
   496  0813  3400               	retlw	0
   497  0814  3464               	retlw	100
   498  0815  3400               	retlw	0
   499  0816  34E8               	retlw	232
   500  0817  3403               	retlw	3
   501  0818  3410               	retlw	16
   502  0819  3427               	retlw	39
   503  081A                     __end_of_dpowers:
   504  0009                     _PORTEbits	set	9
   505  0018                     _RCSTAbits	set	24
   506  0009                     _PORTE	set	9
   507  0008                     _PORTD	set	8
   508  0007                     _PORTC	set	7
   509  0006                     _PORTB	set	6
   510  0005                     _PORTA	set	5
   511  000B                     _INTCONbits	set	11
   512  000C                     _PIR1bits	set	12
   513  001A                     _RCREG	set	26
   514  0019                     _TXREG	set	25
   515  001E                     _ADRESH	set	30
   516  001F                     _ADCON0bits	set	31
   517  0064                     _TXIF	set	100
   518  0065                     _RCIF	set	101
   519  0066                     _ADIF	set	102
   520  009F                     _ADCON1bits	set	159
   521  009A                     _SPBRGH	set	154
   522  0099                     _SPBRG	set	153
   523  0098                     _TXSTAbits	set	152
   524  008C                     _PIE1bits	set	140
   525  008F                     _OSCCONbits	set	143
   526  0089                     _TRISE	set	137
   527  0088                     _TRISD	set	136
   528  0085                     _TRISAbits	set	133
   529  0187                     _BAUDCTLbits	set	391
   530  0188                     _ANSEL	set	392
   531  081A                     STR_9:
   532  081A  340D               	retlw	13
   533  081B  3420               	retlw	32	;' '
   534  081C  3453               	retlw	83	;'S'
   535  081D  3469               	retlw	105	;'i'
   536  081E  3420               	retlw	32	;' '
   537  081F  3464               	retlw	100	;'d'
   538  0820  3465               	retlw	101	;'e'
   539  0821  3473               	retlw	115	;'s'
   540  0822  3465               	retlw	101	;'e'
   541  0823  3461               	retlw	97	;'a'
   542  0824  3420               	retlw	32	;' '
   543  0825  3464               	retlw	100	;'d'
   544  0826  3469               	retlw	105	;'i'
   545  0827  3473               	retlw	115	;'s'
   546  0828  346D               	retlw	109	;'m'
   547  0829  3469               	retlw	105	;'i'
   548  082A  346E               	retlw	110	;'n'
   549  082B  3475               	retlw	117	;'u'
   550  082C  3469               	retlw	105	;'i'
   551  082D  3472               	retlw	114	;'r'
   552  082E  3420               	retlw	32	;' '
   553  082F  3463               	retlw	99	;'c'
   554  0830  346F               	retlw	111	;'o'
   555  0831  346E               	retlw	110	;'n'
   556  0832  3474               	retlw	116	;'t'
   557  0833  3461               	retlw	97	;'a'
   558  0834  3464               	retlw	100	;'d'
   559  0835  346F               	retlw	111	;'o'
   560  0836  3472               	retlw	114	;'r'
   561  0837  342C               	retlw	44	;','
   562  0838  3420               	retlw	32	;' '
   563  0839  346F               	retlw	111	;'o'
   564  083A  3470               	retlw	112	;'p'
   565  083B  3472               	retlw	114	;'r'
   566  083C  3469               	retlw	105	;'i'
   567  083D  346D               	retlw	109	;'m'
   568  083E  3461               	retlw	97	;'a'
   569  083F  3420               	retlw	32	;' '
   570  0840  342D               	retlw	45	;'-'
   571  0841  340D               	retlw	13
   572  0842  3400               	retlw	0
   573  0843                     STR_8:
   574  0843  340D               	retlw	13
   575  0844  3420               	retlw	32	;' '
   576  0845  3453               	retlw	83	;'S'
   577  0846  3469               	retlw	105	;'i'
   578  0847  3420               	retlw	32	;' '
   579  0848  3464               	retlw	100	;'d'
   580  0849  3465               	retlw	101	;'e'
   581  084A  3473               	retlw	115	;'s'
   582  084B  3465               	retlw	101	;'e'
   583  084C  3461               	retlw	97	;'a'
   584  084D  3420               	retlw	32	;' '
   585  084E  3461               	retlw	97	;'a'
   586  084F  3475               	retlw	117	;'u'
   587  0850  346D               	retlw	109	;'m'
   588  0851  3465               	retlw	101	;'e'
   589  0852  346E               	retlw	110	;'n'
   590  0853  3474               	retlw	116	;'t'
   591  0854  3461               	retlw	97	;'a'
   592  0855  3472               	retlw	114	;'r'
   593  0856  3420               	retlw	32	;' '
   594  0857  3463               	retlw	99	;'c'
   595  0858  346F               	retlw	111	;'o'
   596  0859  346E               	retlw	110	;'n'
   597  085A  3474               	retlw	116	;'t'
   598  085B  3461               	retlw	97	;'a'
   599  085C  3464               	retlw	100	;'d'
   600  085D  346F               	retlw	111	;'o'
   601  085E  3472               	retlw	114	;'r'
   602  085F  342C               	retlw	44	;','
   603  0860  3420               	retlw	32	;' '
   604  0861  346F               	retlw	111	;'o'
   605  0862  3470               	retlw	112	;'p'
   606  0863  3472               	retlw	114	;'r'
   607  0864  3469               	retlw	105	;'i'
   608  0865  346D               	retlw	109	;'m'
   609  0866  3461               	retlw	97	;'a'
   610  0867  3420               	retlw	32	;' '
   611  0868  342B               	retlw	43	;'+'
   612  0869  340D               	retlw	13
   613  086A  3400               	retlw	0
   614  086B                     STR_10:
   615  086B  340D               	retlw	13
   616  086C  3420               	retlw	32	;' '
   617  086D  3453               	retlw	83	;'S'
   618  086E  3469               	retlw	105	;'i'
   619  086F  3420               	retlw	32	;' '
   620  0870  346E               	retlw	110	;'n'
   621  0871  346F               	retlw	111	;'o'
   622  0872  3420               	retlw	32	;' '
   623  0873  3464               	retlw	100	;'d'
   624  0874  3465               	retlw	101	;'e'
   625  0875  3473               	retlw	115	;'s'
   626  0876  3465               	retlw	101	;'e'
   627  0877  3461               	retlw	97	;'a'
   628  0878  3420               	retlw	32	;' '
   629  0879  3472               	retlw	114	;'r'
   630  087A  3465               	retlw	101	;'e'
   631  087B  3461               	retlw	97	;'a'
   632  087C  346C               	retlw	108	;'l'
   633  087D  3469               	retlw	105	;'i'
   634  087E  347A               	retlw	122	;'z'
   635  087F  3461               	retlw	97	;'a'
   636  0880  3472               	retlw	114	;'r'
   637  0881  3420               	retlw	32	;' '
   638  0882  346E               	retlw	110	;'n'
   639  0883  3461               	retlw	97	;'a'
   640  0884  3464               	retlw	100	;'d'
   641  0885  3461               	retlw	97	;'a'
   642  0886  3420               	retlw	32	;' '
   643  0887  346F               	retlw	111	;'o'
   644  0888  3470               	retlw	112	;'p'
   645  0889  3472               	retlw	114	;'r'
   646  088A  3469               	retlw	105	;'i'
   647  088B  346D               	retlw	109	;'m'
   648  088C  3461               	retlw	97	;'a'
   649  088D  3420               	retlw	32	;' '
   650  088E  342A               	retlw	42	;'*'
   651  088F  340D               	retlw	13
   652  0890  3400               	retlw	0
   653  0891                     STR_4:
   654  0891  3456               	retlw	86	;'V'
   655  0892  3461               	retlw	97	;'a'
   656  0893  346C               	retlw	108	;'l'
   657  0894  346F               	retlw	111	;'o'
   658  0895  3472               	retlw	114	;'r'
   659  0896  3420               	retlw	32	;' '
   660  0897  3464               	retlw	100	;'d'
   661  0898  3465               	retlw	101	;'e'
   662  0899  346C               	retlw	108	;'l'
   663  089A  3420               	retlw	32	;' '
   664  089B  3450               	retlw	80	;'P'
   665  089C  344F               	retlw	79	;'O'
   666  089D  3454               	retlw	84	;'T'
   667  089E  3431               	retlw	49	;'1'
   668  089F  343A               	retlw	58	;':'
   669  08A0  340D               	retlw	13
   670  08A1  3400               	retlw	0
   671  08A2                     STR_6:
   672  08A2  3456               	retlw	86	;'V'
   673  08A3  3461               	retlw	97	;'a'
   674  08A4  346C               	retlw	108	;'l'
   675  08A5  346F               	retlw	111	;'o'
   676  08A6  3472               	retlw	114	;'r'
   677  08A7  3420               	retlw	32	;' '
   678  08A8  3464               	retlw	100	;'d'
   679  08A9  3465               	retlw	101	;'e'
   680  08AA  346C               	retlw	108	;'l'
   681  08AB  3420               	retlw	32	;' '
   682  08AC  3450               	retlw	80	;'P'
   683  08AD  344F               	retlw	79	;'O'
   684  08AE  3454               	retlw	84	;'T'
   685  08AF  3432               	retlw	50	;'2'
   686  08B0  343A               	retlw	58	;':'
   687  08B1  340D               	retlw	13
   688  08B2  3400               	retlw	0
   689  08B3                     STR_1:
   690  08B3  3453               	retlw	83	;'S'
   691  08B4  345F               	retlw	95	;'_'
   692  08B5  3431               	retlw	49	;'1'
   693  08B6  343A               	retlw	58	;':'
   694  08B7  3420               	retlw	32	;' '
   695  08B8  3420               	retlw	32	;' '
   696  08B9  3453               	retlw	83	;'S'
   697  08BA  345F               	retlw	95	;'_'
   698  08BB  3432               	retlw	50	;'2'
   699  08BC  343A               	retlw	58	;':'
   700  08BD  3420               	retlw	32	;' '
   701  08BE  3420               	retlw	32	;' '
   702  08BF  3453               	retlw	83	;'S'
   703  08C0  345F               	retlw	95	;'_'
   704  08C1  3433               	retlw	51	;'3'
   705  08C2  343A               	retlw	58	;':'
   706  08C3  3400               	retlw	0
   707  08C4                     STR_2:
   708  08C4  3425               	retlw	37	;'%'
   709  08C5  3464               	retlw	100	;'d'
   710  08C6  3420               	retlw	32	;' '
   711  08C7  3456               	retlw	86	;'V'
   712  08C8  3420               	retlw	32	;' '
   713  08C9  3420               	retlw	32	;' '
   714  08CA  3420               	retlw	32	;' '
   715  08CB  3400               	retlw	0
   716  08CC                     STR_3:
   717  08CC  3425               	retlw	37	;'%'
   718  08CD  3464               	retlw	100	;'d'
   719  08CE  3420               	retlw	32	;' '
   720  08CF  3456               	retlw	86	;'V'
   721  08D0  3420               	retlw	32	;' '
   722  08D1  3400               	retlw	0
   723  088F                     
   724                           	psect	cinit
   725  000F                     start_initialization:	
   726                           ; #config settings
   727                           
   728  000F                     __initialization:
   729                           
   730                           ; Clear objects allocated to COMMON
   731  000F  01F8               	clrf	__pbssCOMMON& (0+127)
   732  0010  01F9               	clrf	(__pbssCOMMON+1)& (0+127)
   733  0011  01FA               	clrf	(__pbssCOMMON+2)& (0+127)
   734                           
   735                           ; Clear objects allocated to BANK0
   736  0012  1283               	bcf	3,5	;RP0=0, select bank0
   737  0013  1303               	bcf	3,6	;RP1=0, select bank0
   738  0014  01D4               	clrf	__pbssBANK0& (0+127)
   739  0015  01D5               	clrf	(__pbssBANK0+1)& (0+127)
   740  0016  01D6               	clrf	(__pbssBANK0+2)& (0+127)
   741                           
   742                           ; Clear objects allocated to BANK1
   743  0017  1683               	bsf	3,5	;RP0=1, select bank1
   744  0018  1303               	bcf	3,6	;RP1=0, select bank1
   745  0019  01CB               	clrf	__pbssBANK1& (0+127)
   746  001A  01CC               	clrf	(__pbssBANK1+1)& (0+127)
   747  001B  01CD               	clrf	(__pbssBANK1+2)& (0+127)
   748  001C  01CE               	clrf	(__pbssBANK1+3)& (0+127)
   749  001D  01CF               	clrf	(__pbssBANK1+4)& (0+127)
   750  001E  01D0               	clrf	(__pbssBANK1+5)& (0+127)
   751  001F                     end_of_initialization:	
   752                           ;End of C runtime variable initialization code
   753                           
   754  001F                     __end_of__initialization:
   755  001F  0183               	clrf	3
   756  0020  120A  118A  2B8D   	ljmp	_main	;jump to C main() function
   757                           
   758                           	psect	bssCOMMON
   759  0078                     __pbssCOMMON:
   760  0078                     _residuo:
   761  0078                     	ds	1
   762  0079                     _voltaje_c:
   763  0079                     	ds	1
   764  007A                     _voltaje_b:
   765  007A                     	ds	1
   766                           
   767                           	psect	bssBANK0
   768  0054                     __pbssBANK0:
   769  0054                     _dato:
   770  0054                     	ds	1
   771  0055                     _dato1:
   772  0055                     	ds	1
   773  0056                     _dividendo:
   774  0056                     	ds	1
   775                           
   776                           	psect	bssBANK1
   777  00CB                     __pbssBANK1:
   778  00CB                     _contador:
   779  00CB                     	ds	1
   780  00CC                     _unidades:
   781  00CC                     	ds	1
   782  00CD                     _decenas:
   783  00CD                     	ds	1
   784  00CE                     _centenas:
   785  00CE                     	ds	1
   786  00CF                     _volt02:
   787  00CF                     	ds	1
   788  00D0                     _volt01:
   789  00D0                     	ds	1
   790                           
   791                           	psect	cstackBANK1
   792  00A0                     __pcstackBANK1:
   793  00A0                     main@buffer:
   794                           
   795                           ; 20 bytes @ 0x0
   796  00A0                     	ds	20
   797  00B4                     main@buffer1:
   798                           
   799                           ; 20 bytes @ 0x14
   800  00B4                     	ds	20
   801  00C8                     main@dato1:
   802                           
   803                           ; 1 bytes @ 0x28
   804  00C8                     	ds	1
   805  00C9                     main@dato:
   806                           
   807                           ; 1 bytes @ 0x29
   808  00C9                     	ds	1
   809  00CA                     main@answer:
   810                           
   811                           ; 1 bytes @ 0x2A
   812  00CA                     	ds	1
   813                           
   814                           	psect	cstackCOMMON
   815  0070                     __pcstackCOMMON:
   816  0070                     ?_setup:
   817  0070                     ?_Lcd_Init:	
   818                           ; 1 bytes @ 0x0
   819                           
   820  0070                     ?_Lcd_Clear:	
   821                           ; 1 bytes @ 0x0
   822                           
   823  0070                     ?_division:	
   824                           ; 1 bytes @ 0x0
   825                           
   826  0070                     ?_Lcd_Write_Char:	
   827                           ; 1 bytes @ 0x0
   828                           
   829  0070                     ?_config_ADC:	
   830                           ; 1 bytes @ 0x0
   831                           
   832  0070                     ?_isr:	
   833                           ; 1 bytes @ 0x0
   834                           
   835  0070                     ??_isr:	
   836                           ; 1 bytes @ 0x0
   837                           
   838  0070                     ?_main:	
   839                           ; 1 bytes @ 0x0
   840                           
   841  0070                     ?_Lcd_Port:	
   842                           ; 1 bytes @ 0x0
   843                           
   844  0070                     ?_Lcd_Cmd:	
   845                           ; 1 bytes @ 0x0
   846                           
   847  0070                     ?_printf:	
   848                           ; 1 bytes @ 0x0
   849                           
   850                           
   851                           ; 2 bytes @ 0x0
   852  0070                     	ds	3
   853  0073                     ??_config_ADC:
   854  0073                     ?_putch:	
   855                           ; 1 bytes @ 0x3
   856                           
   857  0073                     ??_Lcd_Port:	
   858                           ; 1 bytes @ 0x3
   859                           
   860  0073                     ?__Umul8_16:	
   861                           ; 1 bytes @ 0x3
   862                           
   863  0073                     ?___awdiv:	
   864                           ; 2 bytes @ 0x3
   865                           
   866  0073                     ?___awmod:	
   867                           ; 2 bytes @ 0x3
   868                           
   869  0073                     ?___lwdiv:	
   870                           ; 2 bytes @ 0x3
   871                           
   872  0073                     ?___xxtofl:	
   873                           ; 2 bytes @ 0x3
   874                           
   875  0073                     putch@data:	
   876                           ; 4 bytes @ 0x3
   877                           
   878  0073                     Lcd_Port@a:	
   879                           ; 1 bytes @ 0x3
   880                           
   881  0073                     __Umul8_16@multiplicand:	
   882                           ; 1 bytes @ 0x3
   883                           
   884  0073                     ___awdiv@divisor:	
   885                           ; 1 bytes @ 0x3
   886                           
   887  0073                     ___awmod@divisor:	
   888                           ; 2 bytes @ 0x3
   889                           
   890  0073                     ___lwdiv@divisor:	
   891                           ; 2 bytes @ 0x3
   892                           
   893  0073                     ___xxtofl@val:	
   894                           ; 2 bytes @ 0x3
   895                           
   896                           
   897                           ; 4 bytes @ 0x3
   898  0073                     	ds	1
   899  0074                     ??_Lcd_Write_Char:
   900  0074                     ??_putch:	
   901                           ; 1 bytes @ 0x4
   902                           
   903  0074                     ??_Lcd_Cmd:	
   904                           ; 1 bytes @ 0x4
   905                           
   906                           
   907                           ; 1 bytes @ 0x4
   908  0074                     	ds	1
   909  0075                     ??__Umul8_16:
   910  0075                     Lcd_Write_Char@a:	
   911                           ; 1 bytes @ 0x5
   912                           
   913  0075                     config_ADC@frec:	
   914                           ; 1 bytes @ 0x5
   915                           
   916  0075                     ___awdiv@dividend:	
   917                           ; 1 bytes @ 0x5
   918                           
   919  0075                     ___awmod@dividend:	
   920                           ; 2 bytes @ 0x5
   921                           
   922  0075                     ___lwdiv@dividend:	
   923                           ; 2 bytes @ 0x5
   924                           
   925                           
   926                           ; 2 bytes @ 0x5
   927  0075                     	ds	1
   928  0076                     ??_setup:
   929  0076                     Lcd_Cmd@a:	
   930                           ; 1 bytes @ 0x6
   931                           
   932  0076                     Lcd_Write_Char@temp:	
   933                           ; 1 bytes @ 0x6
   934                           
   935                           
   936                           ; 1 bytes @ 0x6
   937  0076                     	ds	1
   938  0077                     ??_Lcd_Clear:
   939  0077                     ?_Lcd_Set_Cursor:	
   940                           ; 1 bytes @ 0x7
   941                           
   942  0077                     ??___awdiv:	
   943                           ; 1 bytes @ 0x7
   944                           
   945  0077                     ??___awmod:	
   946                           ; 1 bytes @ 0x7
   947                           
   948  0077                     ??___lwdiv:	
   949                           ; 1 bytes @ 0x7
   950                           
   951  0077                     Lcd_Set_Cursor@b:	
   952                           ; 1 bytes @ 0x7
   953                           
   954  0077                     Lcd_Write_Char@y:	
   955                           ; 1 bytes @ 0x7
   956                           
   957                           
   958                           ; 1 bytes @ 0x7
   959  0077                     	ds	1
   960  0078                     ??_Lcd_Write_String:
   961                           
   962                           	psect	cstackBANK0
   963  0020                     __pcstackBANK0:	
   964                           ; 1 bytes @ 0x8
   965                           
   966  0020                     ??_Lcd_Init:
   967  0020                     ??_Lcd_Set_Cursor:	
   968                           ; 1 bytes @ 0x0
   969                           
   970  0020                     ?_Lcd_Write_String:	
   971                           ; 1 bytes @ 0x0
   972                           
   973  0020                     ??___xxtofl:	
   974                           ; 1 bytes @ 0x0
   975                           
   976  0020                     ___awdiv@counter:	
   977                           ; 1 bytes @ 0x0
   978                           
   979  0020                     ___awmod@counter:	
   980                           ; 1 bytes @ 0x0
   981                           
   982  0020                     ___lwdiv@counter:	
   983                           ; 1 bytes @ 0x0
   984                           
   985  0020                     Lcd_Write_String@a:	
   986                           ; 1 bytes @ 0x0
   987                           
   988  0020                     __Umul8_16@product:	
   989                           ; 2 bytes @ 0x0
   990                           
   991                           
   992                           ; 2 bytes @ 0x0
   993  0020                     	ds	1
   994  0021                     ___awdiv@sign:
   995  0021                     ___awmod@sign:	
   996                           ; 1 bytes @ 0x1
   997                           
   998  0021                     ___lwdiv@quotient:	
   999                           ; 1 bytes @ 0x1
  1000                           
  1001                           
  1002                           ; 2 bytes @ 0x1
  1003  0021                     	ds	1
  1004  0022                     Lcd_Set_Cursor@a:
  1005  0022                     Lcd_Write_String@i:	
  1006                           ; 1 bytes @ 0x2
  1007                           
  1008  0022                     ___awdiv@quotient:	
  1009                           ; 2 bytes @ 0x2
  1010                           
  1011  0022                     __Umul8_16@word_mpld:	
  1012                           ; 2 bytes @ 0x2
  1013                           
  1014                           
  1015                           ; 2 bytes @ 0x2
  1016  0022                     	ds	1
  1017  0023                     ?___lwmod:
  1018  0023                     Lcd_Set_Cursor@z:	
  1019                           ; 2 bytes @ 0x3
  1020                           
  1021  0023                     ___lwmod@divisor:	
  1022                           ; 1 bytes @ 0x3
  1023                           
  1024                           
  1025                           ; 2 bytes @ 0x3
  1026  0023                     	ds	1
  1027  0024                     ??_division:
  1028  0024                     Lcd_Set_Cursor@y:	
  1029                           ; 1 bytes @ 0x4
  1030                           
  1031  0024                     __Umul8_16@multiplier:	
  1032                           ; 1 bytes @ 0x4
  1033                           
  1034  0024                     ___xxtofl@sign:	
  1035                           ; 1 bytes @ 0x4
  1036                           
  1037                           
  1038                           ; 1 bytes @ 0x4
  1039  0024                     	ds	1
  1040  0025                     Lcd_Set_Cursor@temp:
  1041  0025                     ___xxtofl@exp:	
  1042                           ; 1 bytes @ 0x5
  1043                           
  1044  0025                     ___lwmod@dividend:	
  1045                           ; 1 bytes @ 0x5
  1046                           
  1047                           
  1048                           ; 2 bytes @ 0x5
  1049  0025                     	ds	1
  1050  0026                     ___xxtofl@arg:
  1051                           
  1052                           ; 4 bytes @ 0x6
  1053  0026                     	ds	1
  1054  0027                     ??___lwmod:
  1055  0027                     division@valor:	
  1056                           ; 1 bytes @ 0x7
  1057                           
  1058                           
  1059                           ; 1 bytes @ 0x7
  1060  0027                     	ds	1
  1061  0028                     ___lwmod@counter:
  1062                           
  1063                           ; 1 bytes @ 0x8
  1064  0028                     	ds	1
  1065  0029                     ?__doprnt:
  1066  0029                     __doprnt@f:	
  1067                           ; 2 bytes @ 0x9
  1068                           
  1069                           
  1070                           ; 1 bytes @ 0x9
  1071  0029                     	ds	1
  1072  002A                     ?___flmul:
  1073  002A                     __doprnt@ap:	
  1074                           ; 4 bytes @ 0xA
  1075                           
  1076  002A                     ___flmul@b:	
  1077                           ; 1 bytes @ 0xA
  1078                           
  1079                           
  1080                           ; 4 bytes @ 0xA
  1081  002A                     	ds	1
  1082  002B                     ??__doprnt:
  1083                           
  1084                           ; 1 bytes @ 0xB
  1085  002B                     	ds	3
  1086  002E                     __doprnt@flag:
  1087  002E                     ___flmul@a:	
  1088                           ; 1 bytes @ 0xE
  1089                           
  1090                           
  1091                           ; 4 bytes @ 0xE
  1092  002E                     	ds	1
  1093  002F                     __doprnt@prec:
  1094                           
  1095                           ; 1 bytes @ 0xF
  1096  002F                     	ds	1
  1097  0030                     __doprnt@val:
  1098                           
  1099                           ; 2 bytes @ 0x10
  1100  0030                     	ds	2
  1101  0032                     ??___flmul:
  1102  0032                     __doprnt@c:	
  1103                           ; 1 bytes @ 0x12
  1104                           
  1105                           
  1106                           ; 1 bytes @ 0x12
  1107  0032                     	ds	1
  1108  0033                     __doprnt@pb:
  1109                           
  1110                           ; 1 bytes @ 0x13
  1111  0033                     	ds	1
  1112  0034                     ??_printf:
  1113  0034                     ?_sprintf:	
  1114                           ; 1 bytes @ 0x14
  1115                           
  1116  0034                     sprintf@f:	
  1117                           ; 2 bytes @ 0x14
  1118                           
  1119                           
  1120                           ; 1 bytes @ 0x14
  1121  0034                     	ds	2
  1122  0036                     printf@ap:
  1123                           
  1124                           ; 1 bytes @ 0x16
  1125  0036                     	ds	1
  1126  0037                     ??_sprintf:
  1127  0037                     ___flmul@sign:	
  1128                           ; 1 bytes @ 0x17
  1129                           
  1130  0037                     printf@f:	
  1131                           ; 1 bytes @ 0x17
  1132                           
  1133                           
  1134                           ; 1 bytes @ 0x17
  1135  0037                     	ds	1
  1136  0038                     printf@pb:
  1137  0038                     ___flmul@grs:	
  1138                           ; 2 bytes @ 0x18
  1139                           
  1140                           
  1141                           ; 4 bytes @ 0x18
  1142  0038                     	ds	1
  1143  0039                     sprintf@wh:
  1144                           
  1145                           ; 1 bytes @ 0x19
  1146  0039                     	ds	1
  1147  003A                     sprintf@ap:
  1148                           
  1149                           ; 1 bytes @ 0x1A
  1150  003A                     	ds	1
  1151  003B                     sprintf@pb:
  1152                           
  1153                           ; 2 bytes @ 0x1B
  1154  003B                     	ds	1
  1155  003C                     ___flmul@aexp:
  1156                           
  1157                           ; 1 bytes @ 0x1C
  1158  003C                     	ds	1
  1159  003D                     ___flmul@bexp:
  1160                           
  1161                           ; 1 bytes @ 0x1D
  1162  003D                     	ds	1
  1163  003E                     ___flmul@prod:
  1164                           
  1165                           ; 4 bytes @ 0x1E
  1166  003E                     	ds	4
  1167  0042                     ___flmul@temp:
  1168                           
  1169                           ; 2 bytes @ 0x22
  1170  0042                     	ds	2
  1171  0044                     ?___fltol:
  1172  0044                     ___fltol@f1:	
  1173                           ; 4 bytes @ 0x24
  1174                           
  1175                           
  1176                           ; 4 bytes @ 0x24
  1177  0044                     	ds	4
  1178  0048                     ??___fltol:
  1179                           
  1180                           ; 1 bytes @ 0x28
  1181  0048                     	ds	5
  1182  004D                     ___fltol@sign1:
  1183                           
  1184                           ; 1 bytes @ 0x2D
  1185  004D                     	ds	1
  1186  004E                     ___fltol@exp1:
  1187                           
  1188                           ; 1 bytes @ 0x2E
  1189  004E                     	ds	1
  1190  004F                     ??_main:
  1191                           
  1192                           ; 1 bytes @ 0x2F
  1193  004F                     	ds	5
  1194                           
  1195                           	psect	maintext
  1196  038D                     __pmaintext:	
  1197 ;;
  1198 ;;Main: autosize = 0, tempsize = 5, incstack = 0, save=0
  1199 ;;
  1200 ;; *************** function _main *****************
  1201 ;; Defined at:
  1202 ;;		line 105 in file "Lab02.c"
  1203 ;; Parameters:    Size  Location     Type
  1204 ;;		None
  1205 ;; Auto vars:     Size  Location     Type
  1206 ;;  answer          1   42[BANK1 ] unsigned char 
  1207 ;;  buffer1        20   20[BANK1 ] unsigned char [20]
  1208 ;;  buffer         20    0[BANK1 ] unsigned char [20]
  1209 ;;  dato            1   41[BANK1 ] unsigned char 
  1210 ;;  dato1           1   40[BANK1 ] unsigned char 
  1211 ;; Return value:  Size  Location     Type
  1212 ;;                  1    wreg      void 
  1213 ;; Registers used:
  1214 ;;		wreg, fsr0l, fsr0h, status,2, status,0, btemp+1, pclath, cstack
  1215 ;; Tracked objects:
  1216 ;;		On entry : B00/0
  1217 ;;		On exit  : 0/0
  1218 ;;		Unchanged: 0/0
  1219 ;; Data sizes:     COMMON   BANK0   BANK1   BANK3   BANK2
  1220 ;;      Params:         0       0       0       0       0
  1221 ;;      Locals:         0       0      43       0       0
  1222 ;;      Temps:          0       5       0       0       0
  1223 ;;      Totals:         0       5      43       0       0
  1224 ;;Total ram usage:       48 bytes
  1225 ;; Hardware stack levels required when called:    4
  1226 ;; This function calls:
  1227 ;;		_Lcd_Clear
  1228 ;;		_Lcd_Init
  1229 ;;		_Lcd_Set_Cursor
  1230 ;;		_Lcd_Write_Char
  1231 ;;		_Lcd_Write_String
  1232 ;;		___flmul
  1233 ;;		___fltol
  1234 ;;		___xxtofl
  1235 ;;		_division
  1236 ;;		_printf
  1237 ;;		_setup
  1238 ;;		_sprintf
  1239 ;; This function is called by:
  1240 ;;		Startup code after reset
  1241 ;; This function uses a non-reentrant model
  1242 ;;
  1243                           
  1244                           
  1245                           ;psect for function _main
  1246  038D                     _main:
  1247  038D                     l2868:	
  1248                           ;incstack = 0
  1249                           ; Regs used in _main: [wreg-fsr0h+status,2+status,0+btemp+1+pclath+cstack]
  1250                           
  1251                           
  1252                           ;Lab02.c: 106:     setup();
  1253  038D  120A  158A  2473  120A  118A  	fcall	_setup
  1254  0392                     l2870:
  1255                           
  1256                           ;Lab02.c: 107:     Lcd_Init();
  1257  0392  120A  158A  24F9  120A  118A  	fcall	_Lcd_Init
  1258  0397                     l2872:
  1259                           
  1260                           ;Lab02.c: 108:     Lcd_Clear();
  1261  0397  120A  118A  27EF  120A  118A  	fcall	_Lcd_Clear
  1262  039C                     l2874:
  1263                           
  1264                           ;Lab02.c: 109:     char buffer[20];;Lab02.c: 110:     char buffer1[20];;Lab02.c: 111:   
      +                            char dato1;;Lab02.c: 112:     char dato;;Lab02.c: 113:     Lcd_Set_Cursor(1,1);
  1265  039C  01F7               	clrf	Lcd_Set_Cursor@b
  1266  039D  0AF7               	incf	Lcd_Set_Cursor@b,f
  1267  039E  3001               	movlw	1
  1268  039F  120A  158A  2547  120A  118A  	fcall	_Lcd_Set_Cursor
  1269  03A4                     l2876:
  1270                           
  1271                           ;Lab02.c: 114:     Lcd_Write_String("S_1:  S_2:  S_3:");
  1272  03A4  30A4               	movlw	(low ((STR_1-__stringbase)| (0+32768)))& (0+255)
  1273  03A5  1283               	bcf	3,5	;RP0=0, select bank0
  1274  03A6  1303               	bcf	3,6	;RP1=0, select bank0
  1275  03A7  00A0               	movwf	Lcd_Write_String@a
  1276  03A8  3080               	movlw	128
  1277  03A9  00A1               	movwf	Lcd_Write_String@a+1
  1278  03AA  120A  158A  23D1  120A  118A  	fcall	_Lcd_Write_String
  1279  03AF                     l110:	
  1280                           ;Lab02.c: 118:     while(1){
  1281                           
  1282                           
  1283                           ;Lab02.c: 120:     dato = volt01*0.0196;
  1284  03AF  1683               	bsf	3,5	;RP0=1, select bank1
  1285  03B0  1303               	bcf	3,6	;RP1=0, select bank1
  1286  03B1  0850               	movf	_volt01^(0+128),w
  1287  03B2  1283               	bcf	3,5	;RP0=0, select bank0
  1288  03B3  1303               	bcf	3,6	;RP1=0, select bank0
  1289  03B4  00CF               	movwf	??_main
  1290  03B5  01D0               	clrf	??_main+1
  1291  03B6  01D1               	clrf	??_main+2
  1292  03B7  01D2               	clrf	??_main+3
  1293  03B8  0852               	movf	??_main+3,w
  1294  03B9  00F6               	movwf	___xxtofl@val+3
  1295  03BA  0851               	movf	??_main+2,w
  1296  03BB  00F5               	movwf	___xxtofl@val+2
  1297  03BC  0850               	movf	??_main+1,w
  1298  03BD  00F4               	movwf	___xxtofl@val+1
  1299  03BE  084F               	movf	??_main,w
  1300  03BF  00F3               	movwf	___xxtofl@val
  1301  03C0  3001               	movlw	1
  1302  03C1  120A  158A  2744  120A  118A  	fcall	___xxtofl
  1303  03C6  0876               	movf	?___xxtofl+3,w
  1304  03C7  1283               	bcf	3,5	;RP0=0, select bank0
  1305  03C8  1303               	bcf	3,6	;RP1=0, select bank0
  1306  03C9  00B1               	movwf	___flmul@a+3
  1307  03CA  0875               	movf	?___xxtofl+2,w
  1308  03CB  00B0               	movwf	___flmul@a+2
  1309  03CC  0874               	movf	?___xxtofl+1,w
  1310  03CD  00AF               	movwf	___flmul@a+1
  1311  03CE  0873               	movf	?___xxtofl,w
  1312  03CF  00AE               	movwf	___flmul@a
  1313  03D0  303C               	movlw	60
  1314  03D1  00AD               	movwf	___flmul@b+3
  1315  03D2  30A0               	movlw	160
  1316  03D3  00AC               	movwf	___flmul@b+2
  1317  03D4  3090               	movlw	144
  1318  03D5  00AB               	movwf	___flmul@b+1
  1319  03D6  302E               	movlw	46
  1320  03D7  00AA               	movwf	___flmul@b
  1321  03D8  120A  118A  202C  120A  118A  	fcall	___flmul
  1322  03DD  1283               	bcf	3,5	;RP0=0, select bank0
  1323  03DE  1303               	bcf	3,6	;RP1=0, select bank0
  1324  03DF  082D               	movf	?___flmul+3,w
  1325  03E0  00C7               	movwf	___fltol@f1+3
  1326  03E1  082C               	movf	?___flmul+2,w
  1327  03E2  00C6               	movwf	___fltol@f1+2
  1328  03E3  082B               	movf	?___flmul+1,w
  1329  03E4  00C5               	movwf	___fltol@f1+1
  1330  03E5  082A               	movf	?___flmul,w
  1331  03E6  00C4               	movwf	___fltol@f1
  1332  03E7  120A  158A  26C8  120A  118A  	fcall	___fltol
  1333  03EC  1283               	bcf	3,5	;RP0=0, select bank0
  1334  03ED  1303               	bcf	3,6	;RP1=0, select bank0
  1335  03EE  0844               	movf	?___fltol,w
  1336  03EF  00D3               	movwf	??_main+4
  1337  03F0  0853               	movf	??_main+4,w
  1338  03F1  1683               	bsf	3,5	;RP0=1, select bank1
  1339  03F2  1303               	bcf	3,6	;RP1=0, select bank1
  1340  03F3  00C9               	movwf	main@dato^(0+128)
  1341                           
  1342                           ;Lab02.c: 121:     dato1 = volt02*0.0196;
  1343  03F4  084F               	movf	_volt02^(0+128),w
  1344  03F5  1283               	bcf	3,5	;RP0=0, select bank0
  1345  03F6  1303               	bcf	3,6	;RP1=0, select bank0
  1346  03F7  00CF               	movwf	??_main
  1347  03F8  01D0               	clrf	??_main+1
  1348  03F9  01D1               	clrf	??_main+2
  1349  03FA  01D2               	clrf	??_main+3
  1350  03FB  0852               	movf	??_main+3,w
  1351  03FC  00F6               	movwf	___xxtofl@val+3
  1352  03FD  0851               	movf	??_main+2,w
  1353  03FE  00F5               	movwf	___xxtofl@val+2
  1354  03FF  0850               	movf	??_main+1,w
  1355  0400  00F4               	movwf	___xxtofl@val+1
  1356  0401  084F               	movf	??_main,w
  1357  0402  00F3               	movwf	___xxtofl@val
  1358  0403  3001               	movlw	1
  1359  0404  120A  158A  2744  120A  118A  	fcall	___xxtofl
  1360  0409  0876               	movf	?___xxtofl+3,w
  1361  040A  1283               	bcf	3,5	;RP0=0, select bank0
  1362  040B  1303               	bcf	3,6	;RP1=0, select bank0
  1363  040C  00B1               	movwf	___flmul@a+3
  1364  040D  0875               	movf	?___xxtofl+2,w
  1365  040E  00B0               	movwf	___flmul@a+2
  1366  040F  0874               	movf	?___xxtofl+1,w
  1367  0410  00AF               	movwf	___flmul@a+1
  1368  0411  0873               	movf	?___xxtofl,w
  1369  0412  00AE               	movwf	___flmul@a
  1370  0413  303C               	movlw	60
  1371  0414  00AD               	movwf	___flmul@b+3
  1372  0415  30A0               	movlw	160
  1373  0416  00AC               	movwf	___flmul@b+2
  1374  0417  3090               	movlw	144
  1375  0418  00AB               	movwf	___flmul@b+1
  1376  0419  302E               	movlw	46
  1377  041A  00AA               	movwf	___flmul@b
  1378  041B  120A  118A  202C  120A  118A  	fcall	___flmul
  1379  0420  1283               	bcf	3,5	;RP0=0, select bank0
  1380  0421  1303               	bcf	3,6	;RP1=0, select bank0
  1381  0422  082D               	movf	?___flmul+3,w
  1382  0423  00C7               	movwf	___fltol@f1+3
  1383  0424  082C               	movf	?___flmul+2,w
  1384  0425  00C6               	movwf	___fltol@f1+2
  1385  0426  082B               	movf	?___flmul+1,w
  1386  0427  00C5               	movwf	___fltol@f1+1
  1387  0428  082A               	movf	?___flmul,w
  1388  0429  00C4               	movwf	___fltol@f1
  1389  042A  120A  158A  26C8  120A  118A  	fcall	___fltol
  1390  042F  1283               	bcf	3,5	;RP0=0, select bank0
  1391  0430  1303               	bcf	3,6	;RP1=0, select bank0
  1392  0431  0844               	movf	?___fltol,w
  1393  0432  00D3               	movwf	??_main+4
  1394  0433  0853               	movf	??_main+4,w
  1395  0434  1683               	bsf	3,5	;RP0=1, select bank1
  1396  0435  1303               	bcf	3,6	;RP1=0, select bank1
  1397  0436  00C8               	movwf	main@dato1^(0+128)
  1398  0437                     l2878:
  1399                           
  1400                           ;Lab02.c: 122:     sprintf(buffer, "%d V   ", dato);
  1401  0437  30B5               	movlw	(low ((STR_2-__stringbase)| (0+32768)))& (0+255)
  1402  0438  1283               	bcf	3,5	;RP0=0, select bank0
  1403  0439  1303               	bcf	3,6	;RP1=0, select bank0
  1404  043A  00CF               	movwf	??_main
  1405  043B  084F               	movf	??_main,w
  1406  043C  00B4               	movwf	sprintf@f
  1407  043D  1683               	bsf	3,5	;RP0=1, select bank1
  1408  043E  1303               	bcf	3,6	;RP1=0, select bank1
  1409  043F  0849               	movf	main@dato^(0+128),w
  1410  0440  1283               	bcf	3,5	;RP0=0, select bank0
  1411  0441  1303               	bcf	3,6	;RP1=0, select bank0
  1412  0442  00D0               	movwf	??_main+1
  1413  0443  01D1               	clrf	??_main+2
  1414  0444  0850               	movf	??_main+1,w
  1415  0445  00B5               	movwf	?_sprintf+1
  1416  0446  0851               	movf	??_main+2,w
  1417  0447  00B6               	movwf	?_sprintf+2
  1418  0448  30A0               	movlw	(low (main@buffer| 0))& (0+255)
  1419  0449  120A  158A  2387  120A  118A  	fcall	_sprintf
  1420  044E                     l2880:
  1421                           
  1422                           ;Lab02.c: 123:     sprintf(buffer1, "%d V ", dato1);
  1423  044E  30BD               	movlw	(low ((STR_3-__stringbase)| (0+32768)))& (0+255)
  1424  044F  1283               	bcf	3,5	;RP0=0, select bank0
  1425  0450  1303               	bcf	3,6	;RP1=0, select bank0
  1426  0451  00CF               	movwf	??_main
  1427  0452  084F               	movf	??_main,w
  1428  0453  00B4               	movwf	sprintf@f
  1429  0454  1683               	bsf	3,5	;RP0=1, select bank1
  1430  0455  1303               	bcf	3,6	;RP1=0, select bank1
  1431  0456  0848               	movf	main@dato1^(0+128),w
  1432  0457  1283               	bcf	3,5	;RP0=0, select bank0
  1433  0458  1303               	bcf	3,6	;RP1=0, select bank0
  1434  0459  00D0               	movwf	??_main+1
  1435  045A  01D1               	clrf	??_main+2
  1436  045B  0850               	movf	??_main+1,w
  1437  045C  00B5               	movwf	?_sprintf+1
  1438  045D  0851               	movf	??_main+2,w
  1439  045E  00B6               	movwf	?_sprintf+2
  1440  045F  30B4               	movlw	(low (main@buffer1| 0))& (0+255)
  1441  0460  120A  158A  2387  120A  118A  	fcall	_sprintf
  1442  0465                     l2882:
  1443                           
  1444                           ;Lab02.c: 125:     Lcd_Set_Cursor(2,2);
  1445  0465  3002               	movlw	2
  1446  0466  1283               	bcf	3,5	;RP0=0, select bank0
  1447  0467  1303               	bcf	3,6	;RP1=0, select bank0
  1448  0468  00CF               	movwf	??_main
  1449  0469  084F               	movf	??_main,w
  1450  046A  00F7               	movwf	Lcd_Set_Cursor@b
  1451  046B  3002               	movlw	2
  1452  046C  120A  158A  2547  120A  118A  	fcall	_Lcd_Set_Cursor
  1453  0471                     l2884:
  1454                           
  1455                           ;Lab02.c: 126:     Lcd_Write_String(buffer);
  1456  0471  30A0               	movlw	(low (main@buffer| 0))& (0+255)
  1457  0472  1283               	bcf	3,5	;RP0=0, select bank0
  1458  0473  1303               	bcf	3,6	;RP1=0, select bank0
  1459  0474  00A0               	movwf	Lcd_Write_String@a
  1460  0475  3000               	movlw	0
  1461  0476  00A1               	movwf	Lcd_Write_String@a+1
  1462  0477  120A  158A  23D1  120A  118A  	fcall	_Lcd_Write_String
  1463  047C                     l2886:
  1464                           
  1465                           ;Lab02.c: 127:     Lcd_Write_String(buffer1);
  1466  047C  30B4               	movlw	(low (main@buffer1| 0))& (0+255)
  1467  047D  1283               	bcf	3,5	;RP0=0, select bank0
  1468  047E  1303               	bcf	3,6	;RP1=0, select bank0
  1469  047F  00A0               	movwf	Lcd_Write_String@a
  1470  0480  3000               	movlw	0
  1471  0481  00A1               	movwf	Lcd_Write_String@a+1
  1472  0482  120A  158A  23D1  120A  118A  	fcall	_Lcd_Write_String
  1473  0487                     l2888:
  1474                           
  1475                           ;Lab02.c: 128:     Lcd_Write_String('  ');
  1476  0487  3020               	movlw	32
  1477  0488  1283               	bcf	3,5	;RP0=0, select bank0
  1478  0489  1303               	bcf	3,6	;RP1=0, select bank0
  1479  048A  00A0               	movwf	Lcd_Write_String@a
  1480  048B  3020               	movlw	32
  1481  048C  00A1               	movwf	Lcd_Write_String@a+1
  1482  048D  120A  158A  23D1  120A  118A  	fcall	_Lcd_Write_String
  1483  0492                     l2890:
  1484                           
  1485                           ;Lab02.c: 133:     _delay((unsigned long)((1000)*(4000000/4000.0)));
  1486  0492  3006               	movlw	6
  1487  0493  1283               	bcf	3,5	;RP0=0, select bank0
  1488  0494  1303               	bcf	3,6	;RP1=0, select bank0
  1489  0495  00D1               	movwf	??_main+2
  1490  0496  3013               	movlw	19
  1491  0497  00D0               	movwf	??_main+1
  1492  0498  30AD               	movlw	173
  1493  0499  00CF               	movwf	??_main
  1494  049A                     u2987:
  1495  049A  0BCF               	decfsz	??_main,f
  1496  049B  2C9A               	goto	u2987
  1497  049C  0BD0               	decfsz	??_main+1,f
  1498  049D  2C9A               	goto	u2987
  1499  049E  0BD1               	decfsz	??_main+2,f
  1500  049F  2C9A               	goto	u2987
  1501  04A0                     l2892:
  1502                           
  1503                           ;Lab02.c: 135:     if (ADCON0bits.GO == 0){
  1504  04A0  1283               	bcf	3,5	;RP0=0, select bank0
  1505  04A1  1303               	bcf	3,6	;RP1=0, select bank0
  1506  04A2  189F               	btfsc	31,1	;volatile
  1507  04A3  2CA5               	goto	u2941
  1508  04A4  2CA6               	goto	u2940
  1509  04A5                     u2941:
  1510  04A5  2CB0               	goto	l2898
  1511  04A6                     u2940:
  1512  04A6                     l2894:
  1513                           
  1514                           ;Lab02.c: 136:             _delay((unsigned long)((100)*(4000000/4000000.0)));
  1515  04A6  3020               	movlw	32
  1516  04A7  1283               	bcf	3,5	;RP0=0, select bank0
  1517  04A8  1303               	bcf	3,6	;RP1=0, select bank0
  1518  04A9  00CF               	movwf	??_main
  1519  04AA                     u2997:
  1520  04AA  0BCF               	decfsz	??_main,f
  1521  04AB  2CAA               	goto	u2997
  1522  04AC  0000               	nop
  1523  04AD                     l2896:
  1524                           
  1525                           ;Lab02.c: 137:             ADCON0bits.GO = 1;
  1526  04AD  1283               	bcf	3,5	;RP0=0, select bank0
  1527  04AE  1303               	bcf	3,6	;RP1=0, select bank0
  1528  04AF  149F               	bsf	31,1	;volatile
  1529  04B0                     l2898:
  1530                           
  1531                           ;Lab02.c: 140:     division(volt01);
  1532  04B0  1683               	bsf	3,5	;RP0=1, select bank1
  1533  04B1  1303               	bcf	3,6	;RP1=0, select bank1
  1534  04B2  0850               	movf	_volt01^(0+128),w
  1535  04B3  120A  118A  276E  120A  118A  	fcall	_division
  1536  04B8                     l2900:
  1537                           
  1538                           ;Lab02.c: 141:     _delay((unsigned long)((250)*(4000000/4000.0)));
  1539  04B8  3002               	movlw	2
  1540  04B9  1283               	bcf	3,5	;RP0=0, select bank0
  1541  04BA  1303               	bcf	3,6	;RP1=0, select bank0
  1542  04BB  00D1               	movwf	??_main+2
  1543  04BC  3045               	movlw	69
  1544  04BD  00D0               	movwf	??_main+1
  1545  04BE  30A9               	movlw	169
  1546  04BF  00CF               	movwf	??_main
  1547  04C0                     u3007:
  1548  04C0  0BCF               	decfsz	??_main,f
  1549  04C1  2CC0               	goto	u3007
  1550  04C2  0BD0               	decfsz	??_main+1,f
  1551  04C3  2CC0               	goto	u3007
  1552  04C4  0BD1               	decfsz	??_main+2,f
  1553  04C5  2CC0               	goto	u3007
  1554  04C6                     l2902:
  1555                           
  1556                           ;Lab02.c: 142:     printf("Valor del POT1:\r");
  1557  04C6  3082               	movlw	(low ((STR_4-__stringbase)| (0+32768)))& (0+255)
  1558  04C7  120A  158A  234F  120A  118A  	fcall	_printf
  1559  04CC                     l2904:
  1560                           
  1561                           ;Lab02.c: 143:     _delay((unsigned long)((250)*(4000000/4000.0)));
  1562  04CC  3002               	movlw	2
  1563  04CD  1283               	bcf	3,5	;RP0=0, select bank0
  1564  04CE  1303               	bcf	3,6	;RP1=0, select bank0
  1565  04CF  00D1               	movwf	??_main+2
  1566  04D0  3045               	movlw	69
  1567  04D1  00D0               	movwf	??_main+1
  1568  04D2  30A9               	movlw	169
  1569  04D3  00CF               	movwf	??_main
  1570  04D4                     u3017:
  1571  04D4  0BCF               	decfsz	??_main,f
  1572  04D5  2CD4               	goto	u3017
  1573  04D6  0BD0               	decfsz	??_main+1,f
  1574  04D7  2CD4               	goto	u3017
  1575  04D8  0BD1               	decfsz	??_main+2,f
  1576  04D9  2CD4               	goto	u3017
  1577  04DA                     l2906:
  1578                           
  1579                           ;Lab02.c: 144:     TXREG = centenas;
  1580  04DA  1683               	bsf	3,5	;RP0=1, select bank1
  1581  04DB  1303               	bcf	3,6	;RP1=0, select bank1
  1582  04DC  084E               	movf	_centenas^(0+128),w
  1583  04DD  1283               	bcf	3,5	;RP0=0, select bank0
  1584  04DE  1303               	bcf	3,6	;RP1=0, select bank0
  1585  04DF  0099               	movwf	25	;volatile
  1586  04E0                     l2908:
  1587                           
  1588                           ;Lab02.c: 145:     _delay((unsigned long)((250)*(4000000/4000.0)));
  1589  04E0  3002               	movlw	2
  1590  04E1  1283               	bcf	3,5	;RP0=0, select bank0
  1591  04E2  1303               	bcf	3,6	;RP1=0, select bank0
  1592  04E3  00D1               	movwf	??_main+2
  1593  04E4  3045               	movlw	69
  1594  04E5  00D0               	movwf	??_main+1
  1595  04E6  30A9               	movlw	169
  1596  04E7  00CF               	movwf	??_main
  1597  04E8                     u3027:
  1598  04E8  0BCF               	decfsz	??_main,f
  1599  04E9  2CE8               	goto	u3027
  1600  04EA  0BD0               	decfsz	??_main+1,f
  1601  04EB  2CE8               	goto	u3027
  1602  04EC  0BD1               	decfsz	??_main+2,f
  1603  04ED  2CE8               	goto	u3027
  1604  04EE                     l2910:
  1605                           
  1606                           ;Lab02.c: 146:     TXREG = 46;
  1607  04EE  302E               	movlw	46
  1608  04EF  1283               	bcf	3,5	;RP0=0, select bank0
  1609  04F0  1303               	bcf	3,6	;RP1=0, select bank0
  1610  04F1  0099               	movwf	25	;volatile
  1611  04F2                     l2912:
  1612                           
  1613                           ;Lab02.c: 147:     _delay((unsigned long)((250)*(4000000/4000.0)));
  1614  04F2  3002               	movlw	2
  1615  04F3  1283               	bcf	3,5	;RP0=0, select bank0
  1616  04F4  1303               	bcf	3,6	;RP1=0, select bank0
  1617  04F5  00D1               	movwf	??_main+2
  1618  04F6  3045               	movlw	69
  1619  04F7  00D0               	movwf	??_main+1
  1620  04F8  30A9               	movlw	169
  1621  04F9  00CF               	movwf	??_main
  1622  04FA                     u3037:
  1623  04FA  0BCF               	decfsz	??_main,f
  1624  04FB  2CFA               	goto	u3037
  1625  04FC  0BD0               	decfsz	??_main+1,f
  1626  04FD  2CFA               	goto	u3037
  1627  04FE  0BD1               	decfsz	??_main+2,f
  1628  04FF  2CFA               	goto	u3037
  1629  0500                     l2914:
  1630                           
  1631                           ;Lab02.c: 148:     TXREG = decenas;
  1632  0500  1683               	bsf	3,5	;RP0=1, select bank1
  1633  0501  1303               	bcf	3,6	;RP1=0, select bank1
  1634  0502  084D               	movf	_decenas^(0+128),w
  1635  0503  1283               	bcf	3,5	;RP0=0, select bank0
  1636  0504  1303               	bcf	3,6	;RP1=0, select bank0
  1637  0505  0099               	movwf	25	;volatile
  1638  0506                     l2916:
  1639                           
  1640                           ;Lab02.c: 149:     _delay((unsigned long)((250)*(4000000/4000.0)));
  1641  0506  3002               	movlw	2
  1642  0507  1283               	bcf	3,5	;RP0=0, select bank0
  1643  0508  1303               	bcf	3,6	;RP1=0, select bank0
  1644  0509  00D1               	movwf	??_main+2
  1645  050A  3045               	movlw	69
  1646  050B  00D0               	movwf	??_main+1
  1647  050C  30A9               	movlw	169
  1648  050D  00CF               	movwf	??_main
  1649  050E                     u3047:
  1650  050E  0BCF               	decfsz	??_main,f
  1651  050F  2D0E               	goto	u3047
  1652  0510  0BD0               	decfsz	??_main+1,f
  1653  0511  2D0E               	goto	u3047
  1654  0512  0BD1               	decfsz	??_main+2,f
  1655  0513  2D0E               	goto	u3047
  1656  0514                     l2918:
  1657                           
  1658                           ;Lab02.c: 150:     TXREG = unidades;
  1659  0514  1683               	bsf	3,5	;RP0=1, select bank1
  1660  0515  1303               	bcf	3,6	;RP1=0, select bank1
  1661  0516  084C               	movf	_unidades^(0+128),w
  1662  0517  1283               	bcf	3,5	;RP0=0, select bank0
  1663  0518  1303               	bcf	3,6	;RP1=0, select bank0
  1664  0519  0099               	movwf	25	;volatile
  1665  051A                     l2920:
  1666                           
  1667                           ;Lab02.c: 151:     _delay((unsigned long)((250)*(4000000/4000.0)));
  1668  051A  3002               	movlw	2
  1669  051B  1283               	bcf	3,5	;RP0=0, select bank0
  1670  051C  1303               	bcf	3,6	;RP1=0, select bank0
  1671  051D  00D1               	movwf	??_main+2
  1672  051E  3045               	movlw	69
  1673  051F  00D0               	movwf	??_main+1
  1674  0520  30A9               	movlw	169
  1675  0521  00CF               	movwf	??_main
  1676  0522                     u3057:
  1677  0522  0BCF               	decfsz	??_main,f
  1678  0523  2D22               	goto	u3057
  1679  0524  0BD0               	decfsz	??_main+1,f
  1680  0525  2D22               	goto	u3057
  1681  0526  0BD1               	decfsz	??_main+2,f
  1682  0527  2D22               	goto	u3057
  1683  0528                     l2922:
  1684                           
  1685                           ;Lab02.c: 152:     printf("\r");
  1686  0528  3080               	movlw	(low (((STR_10+36)-__stringbase)| (0+32768)))& (0+255)
  1687  0529  120A  158A  234F  120A  118A  	fcall	_printf
  1688  052E                     l2924:
  1689                           
  1690                           ;Lab02.c: 155:     division(volt02);
  1691  052E  1683               	bsf	3,5	;RP0=1, select bank1
  1692  052F  1303               	bcf	3,6	;RP1=0, select bank1
  1693  0530  084F               	movf	_volt02^(0+128),w
  1694  0531  120A  118A  276E  120A  118A  	fcall	_division
  1695                           
  1696                           ;Lab02.c: 156:     _delay((unsigned long)((250)*(4000000/4000.0)));
  1697  0536  3002               	movlw	2
  1698  0537  1283               	bcf	3,5	;RP0=0, select bank0
  1699  0538  1303               	bcf	3,6	;RP1=0, select bank0
  1700  0539  00D1               	movwf	??_main+2
  1701  053A  3045               	movlw	69
  1702  053B  00D0               	movwf	??_main+1
  1703  053C  30A9               	movlw	169
  1704  053D  00CF               	movwf	??_main
  1705  053E                     u3067:
  1706  053E  0BCF               	decfsz	??_main,f
  1707  053F  2D3E               	goto	u3067
  1708  0540  0BD0               	decfsz	??_main+1,f
  1709  0541  2D3E               	goto	u3067
  1710  0542  0BD1               	decfsz	??_main+2,f
  1711  0543  2D3E               	goto	u3067
  1712  0544                     l2926:
  1713                           
  1714                           ;Lab02.c: 157:     printf("Valor del POT2:\r");
  1715  0544  3093               	movlw	(low ((STR_6-__stringbase)| (0+32768)))& (0+255)
  1716  0545  120A  158A  234F  120A  118A  	fcall	_printf
  1717  054A                     l2928:
  1718                           
  1719                           ;Lab02.c: 158:     _delay((unsigned long)((250)*(4000000/4000.0)));
  1720  054A  3002               	movlw	2
  1721  054B  1283               	bcf	3,5	;RP0=0, select bank0
  1722  054C  1303               	bcf	3,6	;RP1=0, select bank0
  1723  054D  00D1               	movwf	??_main+2
  1724  054E  3045               	movlw	69
  1725  054F  00D0               	movwf	??_main+1
  1726  0550  30A9               	movlw	169
  1727  0551  00CF               	movwf	??_main
  1728  0552                     u3077:
  1729  0552  0BCF               	decfsz	??_main,f
  1730  0553  2D52               	goto	u3077
  1731  0554  0BD0               	decfsz	??_main+1,f
  1732  0555  2D52               	goto	u3077
  1733  0556  0BD1               	decfsz	??_main+2,f
  1734  0557  2D52               	goto	u3077
  1735  0558                     l2930:
  1736                           
  1737                           ;Lab02.c: 159:     TXREG = centenas;
  1738  0558  1683               	bsf	3,5	;RP0=1, select bank1
  1739  0559  1303               	bcf	3,6	;RP1=0, select bank1
  1740  055A  084E               	movf	_centenas^(0+128),w
  1741  055B  1283               	bcf	3,5	;RP0=0, select bank0
  1742  055C  1303               	bcf	3,6	;RP1=0, select bank0
  1743  055D  0099               	movwf	25	;volatile
  1744  055E                     l2932:
  1745                           
  1746                           ;Lab02.c: 160:     _delay((unsigned long)((250)*(4000000/4000.0)));
  1747  055E  3002               	movlw	2
  1748  055F  1283               	bcf	3,5	;RP0=0, select bank0
  1749  0560  1303               	bcf	3,6	;RP1=0, select bank0
  1750  0561  00D1               	movwf	??_main+2
  1751  0562  3045               	movlw	69
  1752  0563  00D0               	movwf	??_main+1
  1753  0564  30A9               	movlw	169
  1754  0565  00CF               	movwf	??_main
  1755  0566                     u3087:
  1756  0566  0BCF               	decfsz	??_main,f
  1757  0567  2D66               	goto	u3087
  1758  0568  0BD0               	decfsz	??_main+1,f
  1759  0569  2D66               	goto	u3087
  1760  056A  0BD1               	decfsz	??_main+2,f
  1761  056B  2D66               	goto	u3087
  1762  056C                     l2934:
  1763                           
  1764                           ;Lab02.c: 161:     TXREG = 46;
  1765  056C  302E               	movlw	46
  1766  056D  1283               	bcf	3,5	;RP0=0, select bank0
  1767  056E  1303               	bcf	3,6	;RP1=0, select bank0
  1768  056F  0099               	movwf	25	;volatile
  1769  0570                     l2936:
  1770                           
  1771                           ;Lab02.c: 162:     _delay((unsigned long)((250)*(4000000/4000.0)));
  1772  0570  3002               	movlw	2
  1773  0571  1283               	bcf	3,5	;RP0=0, select bank0
  1774  0572  1303               	bcf	3,6	;RP1=0, select bank0
  1775  0573  00D1               	movwf	??_main+2
  1776  0574  3045               	movlw	69
  1777  0575  00D0               	movwf	??_main+1
  1778  0576  30A9               	movlw	169
  1779  0577  00CF               	movwf	??_main
  1780  0578                     u3097:
  1781  0578  0BCF               	decfsz	??_main,f
  1782  0579  2D78               	goto	u3097
  1783  057A  0BD0               	decfsz	??_main+1,f
  1784  057B  2D78               	goto	u3097
  1785  057C  0BD1               	decfsz	??_main+2,f
  1786  057D  2D78               	goto	u3097
  1787  057E                     l2938:
  1788                           
  1789                           ;Lab02.c: 163:     TXREG = decenas;
  1790  057E  1683               	bsf	3,5	;RP0=1, select bank1
  1791  057F  1303               	bcf	3,6	;RP1=0, select bank1
  1792  0580  084D               	movf	_decenas^(0+128),w
  1793  0581  1283               	bcf	3,5	;RP0=0, select bank0
  1794  0582  1303               	bcf	3,6	;RP1=0, select bank0
  1795  0583  0099               	movwf	25	;volatile
  1796  0584                     l2940:
  1797                           
  1798                           ;Lab02.c: 164:     _delay((unsigned long)((250)*(4000000/4000.0)));
  1799  0584  3002               	movlw	2
  1800  0585  1283               	bcf	3,5	;RP0=0, select bank0
  1801  0586  1303               	bcf	3,6	;RP1=0, select bank0
  1802  0587  00D1               	movwf	??_main+2
  1803  0588  3045               	movlw	69
  1804  0589  00D0               	movwf	??_main+1
  1805  058A  30A9               	movlw	169
  1806  058B  00CF               	movwf	??_main
  1807  058C                     u3107:
  1808  058C  0BCF               	decfsz	??_main,f
  1809  058D  2D8C               	goto	u3107
  1810  058E  0BD0               	decfsz	??_main+1,f
  1811  058F  2D8C               	goto	u3107
  1812  0590  0BD1               	decfsz	??_main+2,f
  1813  0591  2D8C               	goto	u3107
  1814  0592                     l2942:
  1815                           
  1816                           ;Lab02.c: 165:     TXREG = unidades;
  1817  0592  1683               	bsf	3,5	;RP0=1, select bank1
  1818  0593  1303               	bcf	3,6	;RP1=0, select bank1
  1819  0594  084C               	movf	_unidades^(0+128),w
  1820  0595  1283               	bcf	3,5	;RP0=0, select bank0
  1821  0596  1303               	bcf	3,6	;RP1=0, select bank0
  1822  0597  0099               	movwf	25	;volatile
  1823  0598                     l2944:
  1824                           
  1825                           ;Lab02.c: 166:     _delay((unsigned long)((250)*(4000000/4000.0)));
  1826  0598  3002               	movlw	2
  1827  0599  1283               	bcf	3,5	;RP0=0, select bank0
  1828  059A  1303               	bcf	3,6	;RP1=0, select bank0
  1829  059B  00D1               	movwf	??_main+2
  1830  059C  3045               	movlw	69
  1831  059D  00D0               	movwf	??_main+1
  1832  059E  30A9               	movlw	169
  1833  059F  00CF               	movwf	??_main
  1834  05A0                     u3117:
  1835  05A0  0BCF               	decfsz	??_main,f
  1836  05A1  2DA0               	goto	u3117
  1837  05A2  0BD0               	decfsz	??_main+1,f
  1838  05A3  2DA0               	goto	u3117
  1839  05A4  0BD1               	decfsz	??_main+2,f
  1840  05A5  2DA0               	goto	u3117
  1841                           
  1842                           ;Lab02.c: 167:     printf("\r");
  1843  05A6  3080               	movlw	(low (((STR_10+36)-__stringbase)| (0+32768)))& (0+255)
  1844  05A7  120A  158A  234F  120A  118A  	fcall	_printf
  1845  05AC                     l2946:
  1846                           
  1847                           ;Lab02.c: 169:     division(contador);
  1848  05AC  1683               	bsf	3,5	;RP0=1, select bank1
  1849  05AD  1303               	bcf	3,6	;RP1=0, select bank1
  1850  05AE  084B               	movf	_contador^(0+128),w
  1851  05AF  120A  118A  276E  120A  118A  	fcall	_division
  1852  05B4                     l2948:
  1853                           
  1854                           ;Lab02.c: 170:     Lcd_Write_Char(centenas);
  1855  05B4  1683               	bsf	3,5	;RP0=1, select bank1
  1856  05B5  1303               	bcf	3,6	;RP1=0, select bank1
  1857  05B6  084E               	movf	_centenas^(0+128),w
  1858  05B7  120A  158A  236A  120A  118A  	fcall	_Lcd_Write_Char
  1859  05BC                     l2950:
  1860                           
  1861                           ;Lab02.c: 171:     Lcd_Write_Char(decenas);
  1862  05BC  1683               	bsf	3,5	;RP0=1, select bank1
  1863  05BD  1303               	bcf	3,6	;RP1=0, select bank1
  1864  05BE  084D               	movf	_decenas^(0+128),w
  1865  05BF  120A  158A  236A  120A  118A  	fcall	_Lcd_Write_Char
  1866  05C4                     l2952:
  1867                           
  1868                           ;Lab02.c: 172:     Lcd_Write_Char(unidades);
  1869  05C4  1683               	bsf	3,5	;RP0=1, select bank1
  1870  05C5  1303               	bcf	3,6	;RP1=0, select bank1
  1871  05C6  084C               	movf	_unidades^(0+128),w
  1872  05C7  120A  158A  236A  120A  118A  	fcall	_Lcd_Write_Char
  1873  05CC                     l2954:
  1874                           
  1875                           ;Lab02.c: 175:     _delay((unsigned long)((250)*(4000000/4000.0)));
  1876  05CC  3002               	movlw	2
  1877  05CD  1283               	bcf	3,5	;RP0=0, select bank0
  1878  05CE  1303               	bcf	3,6	;RP1=0, select bank0
  1879  05CF  00D1               	movwf	??_main+2
  1880  05D0  3045               	movlw	69
  1881  05D1  00D0               	movwf	??_main+1
  1882  05D2  30A9               	movlw	169
  1883  05D3  00CF               	movwf	??_main
  1884  05D4                     u3127:
  1885  05D4  0BCF               	decfsz	??_main,f
  1886  05D5  2DD4               	goto	u3127
  1887  05D6  0BD0               	decfsz	??_main+1,f
  1888  05D7  2DD4               	goto	u3127
  1889  05D8  0BD1               	decfsz	??_main+2,f
  1890  05D9  2DD4               	goto	u3127
  1891  05DA                     l2956:
  1892                           
  1893                           ;Lab02.c: 176:     printf("\r Si desea aumentar contador, oprima +\r");
  1894  05DA  3034               	movlw	(low ((STR_8-__stringbase)| (0+32768)))& (0+255)
  1895  05DB  120A  158A  234F  120A  118A  	fcall	_printf
  1896                           
  1897                           ;Lab02.c: 177:     _delay((unsigned long)((250)*(4000000/4000.0)));
  1898  05E0  3002               	movlw	2
  1899  05E1  1283               	bcf	3,5	;RP0=0, select bank0
  1900  05E2  1303               	bcf	3,6	;RP1=0, select bank0
  1901  05E3  00D1               	movwf	??_main+2
  1902  05E4  3045               	movlw	69
  1903  05E5  00D0               	movwf	??_main+1
  1904  05E6  30A9               	movlw	169
  1905  05E7  00CF               	movwf	??_main
  1906  05E8                     u3137:
  1907  05E8  0BCF               	decfsz	??_main,f
  1908  05E9  2DE8               	goto	u3137
  1909  05EA  0BD0               	decfsz	??_main+1,f
  1910  05EB  2DE8               	goto	u3137
  1911  05EC  0BD1               	decfsz	??_main+2,f
  1912  05ED  2DE8               	goto	u3137
  1913  05EE                     l2958:
  1914                           
  1915                           ;Lab02.c: 178:     printf("\r Si desea disminuir contador, oprima -\r");
  1916  05EE  300B               	movlw	(low ((STR_9-__stringbase)| (0+32768)))& (0+255)
  1917  05EF  120A  158A  234F  120A  118A  	fcall	_printf
  1918  05F4                     l2960:
  1919                           
  1920                           ;Lab02.c: 179:     _delay((unsigned long)((250)*(4000000/4000.0)));
  1921  05F4  3002               	movlw	2
  1922  05F5  1283               	bcf	3,5	;RP0=0, select bank0
  1923  05F6  1303               	bcf	3,6	;RP1=0, select bank0
  1924  05F7  00D1               	movwf	??_main+2
  1925  05F8  3045               	movlw	69
  1926  05F9  00D0               	movwf	??_main+1
  1927  05FA  30A9               	movlw	169
  1928  05FB  00CF               	movwf	??_main
  1929  05FC                     u3147:
  1930  05FC  0BCF               	decfsz	??_main,f
  1931  05FD  2DFC               	goto	u3147
  1932  05FE  0BD0               	decfsz	??_main+1,f
  1933  05FF  2DFC               	goto	u3147
  1934  0600  0BD1               	decfsz	??_main+2,f
  1935  0601  2DFC               	goto	u3147
  1936                           
  1937                           ;Lab02.c: 180:     printf("\r Si no desea realizar nada oprima *\r");
  1938  0602  305C               	movlw	(low ((STR_10-__stringbase)| (0+32768)))& (0+255)
  1939  0603  120A  158A  234F  120A  118A  	fcall	_printf
  1940  0608                     l112:	
  1941                           ;Lab02.c: 181:     while(RCIF == 0);
  1942                           
  1943  0608  1283               	bcf	3,5	;RP0=0, select bank0
  1944  0609  1303               	bcf	3,6	;RP1=0, select bank0
  1945  060A  1E8C               	btfss	12,5	;volatile
  1946  060B  2E0D               	goto	u2951
  1947  060C  2E0E               	goto	u2950
  1948  060D                     u2951:
  1949  060D  2E08               	goto	l112
  1950  060E                     u2950:
  1951  060E                     l2962:
  1952                           
  1953                           ;Lab02.c: 182:     char answer = RCREG;
  1954  060E  081A               	movf	26,w	;volatile
  1955  060F  00CF               	movwf	??_main
  1956  0610  084F               	movf	??_main,w
  1957  0611  1683               	bsf	3,5	;RP0=1, select bank1
  1958  0612  1303               	bcf	3,6	;RP1=0, select bank1
  1959  0613  00CA               	movwf	main@answer^(0+128)
  1960  0614                     l2964:
  1961                           
  1962                           ;Lab02.c: 183:     if (answer == '+'){
  1963  0614  302B               	movlw	43
  1964  0615  064A               	xorwf	main@answer^(0+128),w
  1965  0616  1D03               	btfss	3,2
  1966  0617  2E19               	goto	u2961
  1967  0618  2E1A               	goto	u2960
  1968  0619                     u2961:
  1969  0619  2E24               	goto	l2968
  1970  061A                     u2960:
  1971  061A                     l2966:
  1972                           
  1973                           ;Lab02.c: 184:         contador = contador + 1;
  1974  061A  084B               	movf	_contador^(0+128),w
  1975  061B  3E01               	addlw	1
  1976  061C  1283               	bcf	3,5	;RP0=0, select bank0
  1977  061D  1303               	bcf	3,6	;RP1=0, select bank0
  1978  061E  00CF               	movwf	??_main
  1979  061F  084F               	movf	??_main,w
  1980  0620  1683               	bsf	3,5	;RP0=1, select bank1
  1981  0621  1303               	bcf	3,6	;RP1=0, select bank1
  1982  0622  00CB               	movwf	_contador^(0+128)
  1983                           
  1984                           ;Lab02.c: 185:     }
  1985  0623  2BAF               	goto	l110
  1986  0624                     l2968:
  1987  0624  302D               	movlw	45
  1988  0625  064A               	xorwf	main@answer^(0+128),w
  1989  0626  1D03               	btfss	3,2
  1990  0627  2E29               	goto	u2971
  1991  0628  2E2A               	goto	u2970
  1992  0629                     u2971:
  1993  0629  2E34               	goto	l118
  1994  062A                     u2970:
  1995  062A                     l2970:
  1996                           
  1997                           ;Lab02.c: 187:         contador = contador - 1;
  1998  062A  084B               	movf	_contador^(0+128),w
  1999  062B  3EFF               	addlw	255
  2000  062C  1283               	bcf	3,5	;RP0=0, select bank0
  2001  062D  1303               	bcf	3,6	;RP1=0, select bank0
  2002  062E  00CF               	movwf	??_main
  2003  062F  084F               	movf	??_main,w
  2004  0630  1683               	bsf	3,5	;RP0=1, select bank1
  2005  0631  1303               	bcf	3,6	;RP1=0, select bank1
  2006  0632  00CB               	movwf	_contador^(0+128)
  2007                           
  2008                           ;Lab02.c: 188:     }
  2009  0633  2BAF               	goto	l110
  2010  0634                     l118:
  2011  0634  2BAF               	goto	l110
  2012  0635  120A  118A  280C   	ljmp	start
  2013  0638                     __end_of_main:
  2014                           
  2015                           	psect	text1
  2016  0B87                     __ptext1:	
  2017 ;; *************** function _sprintf *****************
  2018 ;; Defined at:
  2019 ;;		line 13 in file "C:\Program Files\Microchip\xc8\v2.31\pic\sources\c90\common\sprintf.c"
  2020 ;; Parameters:    Size  Location     Type
  2021 ;;  wh              1    wreg     PTR unsigned char 
  2022 ;;		 -> main@buffer1(20), main@buffer(20), 
  2023 ;;  f               1   20[BANK0 ] PTR const unsigned char 
  2024 ;;		 -> STR_3(6), STR_2(8), 
  2025 ;; Auto vars:     Size  Location     Type
  2026 ;;  wh              1   25[BANK0 ] PTR unsigned char 
  2027 ;;		 -> main@buffer1(20), main@buffer(20), 
  2028 ;;  pb              2   27[BANK0 ] struct __prbuf
  2029 ;;  ap              1   26[BANK0 ] PTR void [1]
  2030 ;;		 -> ?_sprintf(2), ?_printf(2), 
  2031 ;; Return value:  Size  Location     Type
  2032 ;;                  2   20[BANK0 ] int 
  2033 ;; Registers used:
  2034 ;;		wreg, fsr0l, fsr0h, status,2, status,0, btemp+1, pclath, cstack
  2035 ;; Tracked objects:
  2036 ;;		On entry : 0/0
  2037 ;;		On exit  : 0/0
  2038 ;;		Unchanged: 0/0
  2039 ;; Data sizes:     COMMON   BANK0   BANK1   BANK3   BANK2
  2040 ;;      Params:         0       3       0       0       0
  2041 ;;      Locals:         0       4       0       0       0
  2042 ;;      Temps:          0       2       0       0       0
  2043 ;;      Totals:         0       9       0       0       0
  2044 ;;Total ram usage:        9 bytes
  2045 ;; Hardware stack levels used:    1
  2046 ;; Hardware stack levels required when called:    3
  2047 ;; This function calls:
  2048 ;;		__doprnt
  2049 ;; This function is called by:
  2050 ;;		_main
  2051 ;; This function uses a non-reentrant model
  2052 ;;
  2053                           
  2054                           
  2055                           ;psect for function _sprintf
  2056  0B87                     _sprintf:
  2057                           
  2058                           ;incstack = 0
  2059                           ; Regs used in _sprintf: [wreg-fsr0h+status,2+status,0+btemp+1+pclath+cstack]
  2060                           ;sprintf@wh stored from wreg
  2061  0B87  1283               	bcf	3,5	;RP0=0, select bank0
  2062  0B88  1303               	bcf	3,6	;RP1=0, select bank0
  2063  0B89  00B9               	movwf	sprintf@wh
  2064  0B8A                     l2794:
  2065  0B8A  0839               	movf	sprintf@wh,w
  2066  0B8B  00B7               	movwf	??_sprintf
  2067  0B8C  0837               	movf	??_sprintf,w
  2068  0B8D  00BB               	movwf	sprintf@pb
  2069  0B8E                     l2796:
  2070  0B8E  01BC               	clrf	low ((sprintf@pb| 0+1))
  2071  0B8F                     l2798:
  2072  0B8F  3035               	movlw	(low ((?_sprintf| 0+1)))& (0+255)
  2073  0B90  00B7               	movwf	??_sprintf
  2074  0B91  0837               	movf	??_sprintf,w
  2075  0B92  00BA               	movwf	sprintf@ap
  2076  0B93                     l2800:
  2077  0B93  0834               	movf	sprintf@f,w
  2078  0B94  00B7               	movwf	??_sprintf
  2079  0B95  0837               	movf	??_sprintf,w
  2080  0B96  00A9               	movwf	__doprnt@f
  2081  0B97  303A               	movlw	(low (sprintf@ap| 0))& (0+255)
  2082  0B98  00B8               	movwf	??_sprintf+1
  2083  0B99  0838               	movf	??_sprintf+1,w
  2084  0B9A  00AA               	movwf	__doprnt@ap
  2085  0B9B  303B               	movlw	(low (sprintf@pb| 0))& (0+255)
  2086  0B9C  120A  118A  2638  120A  158A  	fcall	__doprnt
  2087  0BA1                     l2802:
  2088  0BA1  1283               	bcf	3,5	;RP0=0, select bank0
  2089  0BA2  1303               	bcf	3,6	;RP1=0, select bank0
  2090  0BA3  083B               	movf	sprintf@pb,w
  2091  0BA4  0084               	movwf	4
  2092  0BA5  1383               	bcf	3,7	;select IRP bank0
  2093  0BA6  0180               	clrf	0
  2094  0BA7                     l796:
  2095  0BA7  0008               	return
  2096  0BA8                     __end_of_sprintf:
  2097                           
  2098                           	psect	text2
  2099  0C73                     __ptext2:	
  2100 ;; *************** function _setup *****************
  2101 ;; Defined at:
  2102 ;;		line 223 in file "Lab02.c"
  2103 ;; Parameters:    Size  Location     Type
  2104 ;;		None
  2105 ;; Auto vars:     Size  Location     Type
  2106 ;;		None
  2107 ;; Return value:  Size  Location     Type
  2108 ;;                  1    wreg      void 
  2109 ;; Registers used:
  2110 ;;		wreg, fsr0l, fsr0h, status,2, status,0, pclath, cstack
  2111 ;; Tracked objects:
  2112 ;;		On entry : 0/0
  2113 ;;		On exit  : 0/0
  2114 ;;		Unchanged: 0/0
  2115 ;; Data sizes:     COMMON   BANK0   BANK1   BANK3   BANK2
  2116 ;;      Params:         0       0       0       0       0
  2117 ;;      Locals:         0       0       0       0       0
  2118 ;;      Temps:          0       0       0       0       0
  2119 ;;      Totals:         0       0       0       0       0
  2120 ;;Total ram usage:        0 bytes
  2121 ;; Hardware stack levels used:    1
  2122 ;; Hardware stack levels required when called:    2
  2123 ;; This function calls:
  2124 ;;		_config_ADC
  2125 ;; This function is called by:
  2126 ;;		_main
  2127 ;; This function uses a non-reentrant model
  2128 ;;
  2129                           
  2130                           
  2131                           ;psect for function _setup
  2132  0C73                     _setup:
  2133  0C73                     l2050:	
  2134                           ;incstack = 0
  2135                           ; Regs used in _setup: [wreg-fsr0h+status,2+status,0+pclath+cstack]
  2136                           
  2137                           
  2138                           ;Lab02.c: 225:     ANSEL = 0b00000011;
  2139  0C73  3003               	movlw	3
  2140  0C74  1683               	bsf	3,5	;RP0=1, select bank3
  2141  0C75  1703               	bsf	3,6	;RP1=1, select bank3
  2142  0C76  0088               	movwf	8	;volatile
  2143  0C77                     l2052:
  2144                           
  2145                           ;Lab02.c: 226:     TRISAbits.TRISA0 = 1;
  2146  0C77  1683               	bsf	3,5	;RP0=1, select bank1
  2147  0C78  1303               	bcf	3,6	;RP1=0, select bank1
  2148  0C79  1405               	bsf	5,0	;volatile
  2149  0C7A                     l2054:
  2150                           
  2151                           ;Lab02.c: 227:     TRISAbits.TRISA1 = 1;
  2152  0C7A  1485               	bsf	5,1	;volatile
  2153  0C7B                     l2056:
  2154                           
  2155                           ;Lab02.c: 230:     TRISD = 0x00;
  2156  0C7B  0188               	clrf	8	;volatile
  2157  0C7C                     l2058:
  2158                           
  2159                           ;Lab02.c: 231:     TRISE = 0x00;
  2160  0C7C  0189               	clrf	9	;volatile
  2161  0C7D                     l2060:
  2162                           
  2163                           ;Lab02.c: 235:     OSCCONbits.IRCF0 = 0;
  2164  0C7D  120F               	bcf	15,4	;volatile
  2165  0C7E                     l2062:
  2166                           
  2167                           ;Lab02.c: 236:     OSCCONbits.IRCF1 = 1;
  2168  0C7E  168F               	bsf	15,5	;volatile
  2169  0C7F                     l2064:
  2170                           
  2171                           ;Lab02.c: 237:     OSCCONbits.IRCF2 = 1;
  2172  0C7F  170F               	bsf	15,6	;volatile
  2173  0C80                     l2066:
  2174                           
  2175                           ;Lab02.c: 238:     OSCCONbits.SCS = 1;
  2176  0C80  140F               	bsf	15,0	;volatile
  2177  0C81                     l2068:
  2178                           
  2179                           ;Lab02.c: 241:     PIE1bits.ADIE = 1;
  2180  0C81  170C               	bsf	12,6	;volatile
  2181  0C82                     l2070:
  2182                           
  2183                           ;Lab02.c: 242:     PIR1bits.ADIF = 0;
  2184  0C82  1283               	bcf	3,5	;RP0=0, select bank0
  2185  0C83  1303               	bcf	3,6	;RP1=0, select bank0
  2186  0C84  130C               	bcf	12,6	;volatile
  2187  0C85                     l2072:
  2188                           
  2189                           ;Lab02.c: 243:     INTCONbits.GIE = 1;
  2190  0C85  178B               	bsf	11,7	;volatile
  2191  0C86                     l2074:
  2192                           
  2193                           ;Lab02.c: 244:     INTCONbits.PEIE = 1;
  2194  0C86  170B               	bsf	11,6	;volatile
  2195  0C87                     l2076:
  2196                           
  2197                           ;Lab02.c: 245:     PIE1bits.RCIE = 0;
  2198  0C87  1683               	bsf	3,5	;RP0=1, select bank1
  2199  0C88  1303               	bcf	3,6	;RP1=0, select bank1
  2200  0C89  128C               	bcf	12,5	;volatile
  2201  0C8A                     l2078:
  2202                           
  2203                           ;Lab02.c: 246:     PIE1bits.TXIE = 0;
  2204  0C8A  120C               	bcf	12,4	;volatile
  2205  0C8B                     l2080:
  2206                           
  2207                           ;Lab02.c: 249:     PORTA = 0x00;
  2208  0C8B  1283               	bcf	3,5	;RP0=0, select bank0
  2209  0C8C  1303               	bcf	3,6	;RP1=0, select bank0
  2210  0C8D  0185               	clrf	5	;volatile
  2211  0C8E                     l2082:
  2212                           
  2213                           ;Lab02.c: 250:     PORTB = 0x00;
  2214  0C8E  0186               	clrf	6	;volatile
  2215  0C8F                     l2084:
  2216                           
  2217                           ;Lab02.c: 251:     PORTC = 0x00;
  2218  0C8F  0187               	clrf	7	;volatile
  2219  0C90                     l2086:
  2220                           
  2221                           ;Lab02.c: 252:     PORTD = 0x00;
  2222  0C90  0188               	clrf	8	;volatile
  2223  0C91                     l2088:
  2224                           
  2225                           ;Lab02.c: 253:     PORTE = 0x00;
  2226  0C91  0189               	clrf	9	;volatile
  2227  0C92                     l2090:
  2228                           
  2229                           ;Lab02.c: 256:     config_ADC(1);
  2230  0C92  3001               	movlw	1
  2231  0C93  120A  158A  25FA  120A  158A  	fcall	_config_ADC
  2232  0C98                     l2092:
  2233                           
  2234                           ;Lab02.c: 259:     TXSTAbits.SYNC = 0;
  2235  0C98  1683               	bsf	3,5	;RP0=1, select bank1
  2236  0C99  1303               	bcf	3,6	;RP1=0, select bank1
  2237  0C9A  1218               	bcf	24,4	;volatile
  2238  0C9B                     l2094:
  2239                           
  2240                           ;Lab02.c: 260:     TXSTAbits.BRGH = 1;
  2241  0C9B  1518               	bsf	24,2	;volatile
  2242  0C9C                     l2096:
  2243                           
  2244                           ;Lab02.c: 261:     BAUDCTLbits.BRG16 = 0;
  2245  0C9C  1683               	bsf	3,5	;RP0=1, select bank3
  2246  0C9D  1703               	bsf	3,6	;RP1=1, select bank3
  2247  0C9E  1187               	bcf	7,3	;volatile
  2248  0C9F                     l2098:
  2249                           
  2250                           ;Lab02.c: 263:     SPBRG = 25;
  2251  0C9F  3019               	movlw	25
  2252  0CA0  1683               	bsf	3,5	;RP0=1, select bank1
  2253  0CA1  1303               	bcf	3,6	;RP1=0, select bank1
  2254  0CA2  0099               	movwf	25	;volatile
  2255  0CA3                     l2100:
  2256                           
  2257                           ;Lab02.c: 264:     SPBRGH = 1;
  2258  0CA3  3001               	movlw	1
  2259  0CA4  009A               	movwf	26	;volatile
  2260  0CA5                     l2102:
  2261                           
  2262                           ;Lab02.c: 266:     RCSTAbits.SPEN = 1;
  2263  0CA5  1283               	bcf	3,5	;RP0=0, select bank0
  2264  0CA6  1303               	bcf	3,6	;RP1=0, select bank0
  2265  0CA7  1798               	bsf	24,7	;volatile
  2266  0CA8                     l2104:
  2267                           
  2268                           ;Lab02.c: 267:     RCSTAbits.RX9 = 0;
  2269  0CA8  1318               	bcf	24,6	;volatile
  2270  0CA9                     l2106:
  2271                           
  2272                           ;Lab02.c: 268:     RCSTAbits.CREN = 1;
  2273  0CA9  1618               	bsf	24,4	;volatile
  2274  0CAA                     l2108:
  2275                           
  2276                           ;Lab02.c: 269:     TXSTAbits.TX9 = 0;
  2277  0CAA  1683               	bsf	3,5	;RP0=1, select bank1
  2278  0CAB  1303               	bcf	3,6	;RP1=0, select bank1
  2279  0CAC  1318               	bcf	24,6	;volatile
  2280  0CAD                     l2110:
  2281                           
  2282                           ;Lab02.c: 271:     TXSTAbits.TXEN = 1;
  2283  0CAD  1698               	bsf	24,5	;volatile
  2284  0CAE                     l2112:
  2285                           
  2286                           ;Lab02.c: 273:     PIR1bits.RCIF = 0;
  2287  0CAE  1283               	bcf	3,5	;RP0=0, select bank0
  2288  0CAF  1303               	bcf	3,6	;RP1=0, select bank0
  2289  0CB0  128C               	bcf	12,5	;volatile
  2290  0CB1                     l2114:
  2291                           
  2292                           ;Lab02.c: 274:     PIR1bits.TXIF = 0;
  2293  0CB1  120C               	bcf	12,4	;volatile
  2294  0CB2                     l137:
  2295  0CB2  0008               	return
  2296  0CB3                     __end_of_setup:
  2297                           
  2298                           	psect	text3
  2299  0DFA                     __ptext3:	
  2300 ;; *************** function _config_ADC *****************
  2301 ;; Defined at:
  2302 ;;		line 14 in file "ADC.c"
  2303 ;; Parameters:    Size  Location     Type
  2304 ;;  frec            1    wreg     unsigned char 
  2305 ;; Auto vars:     Size  Location     Type
  2306 ;;  frec            1    5[COMMON] unsigned char 
  2307 ;; Return value:  Size  Location     Type
  2308 ;;                  1    wreg      void 
  2309 ;; Registers used:
  2310 ;;		wreg, fsr0l, fsr0h, status,2, status,0
  2311 ;; Tracked objects:
  2312 ;;		On entry : 0/0
  2313 ;;		On exit  : 0/0
  2314 ;;		Unchanged: 0/0
  2315 ;; Data sizes:     COMMON   BANK0   BANK1   BANK3   BANK2
  2316 ;;      Params:         0       0       0       0       0
  2317 ;;      Locals:         1       0       0       0       0
  2318 ;;      Temps:          2       0       0       0       0
  2319 ;;      Totals:         3       0       0       0       0
  2320 ;;Total ram usage:        3 bytes
  2321 ;; Hardware stack levels used:    1
  2322 ;; Hardware stack levels required when called:    1
  2323 ;; This function calls:
  2324 ;;		Nothing
  2325 ;; This function is called by:
  2326 ;;		_setup
  2327 ;; This function uses a non-reentrant model
  2328 ;;
  2329                           
  2330                           
  2331                           ;psect for function _config_ADC
  2332  0DFA                     _config_ADC:
  2333                           
  2334                           ;incstack = 0
  2335                           ; Regs used in _config_ADC: [wreg-fsr0h+status,2+status,0]
  2336                           ;config_ADC@frec stored from wreg
  2337  0DFA  00F5               	movwf	config_ADC@frec
  2338  0DFB                     l1798:
  2339                           
  2340                           ;ADC.c: 15:     switch(frec){
  2341  0DFB  2E48               	goto	l1866
  2342  0DFC                     l1800:
  2343                           
  2344                           ;ADC.c: 17:             ADCON0bits.CHS = 0;
  2345  0DFC  30C3               	movlw	-61
  2346  0DFD  1283               	bcf	3,5	;RP0=0, select bank0
  2347  0DFE  1303               	bcf	3,6	;RP1=0, select bank0
  2348  0DFF  059F               	andwf	31,f	;volatile
  2349  0E00                     l1802:
  2350                           
  2351                           ;ADC.c: 18:             _delay((unsigned long)((100)*(4000000/4000000.0)));
  2352  0E00  3021               	movlw	33
  2353  0E01  00F3               	movwf	??_config_ADC
  2354  0E02                     u3157:
  2355  0E02  0BF3               	decfsz	??_config_ADC,f
  2356  0E03  2E02               	goto	u3157
  2357  0E04                     l1804:
  2358                           
  2359                           ;ADC.c: 20:             ADCON0bits.ADCS0 = 0;
  2360  0E04  1283               	bcf	3,5	;RP0=0, select bank0
  2361  0E05  1303               	bcf	3,6	;RP1=0, select bank0
  2362  0E06  131F               	bcf	31,6	;volatile
  2363  0E07                     l1806:
  2364                           
  2365                           ;ADC.c: 21:             ADCON0bits.ADCS1 = 0;
  2366  0E07  139F               	bcf	31,7	;volatile
  2367  0E08                     l1808:
  2368                           
  2369                           ;ADC.c: 22:             ADCON0bits.ADON = 1;
  2370  0E08  141F               	bsf	31,0	;volatile
  2371  0E09                     l1810:
  2372                           
  2373                           ;ADC.c: 23:             ADCON1bits.ADFM = 0;
  2374  0E09  1683               	bsf	3,5	;RP0=1, select bank1
  2375  0E0A  1303               	bcf	3,6	;RP1=0, select bank1
  2376  0E0B  139F               	bcf	31,7	;volatile
  2377  0E0C                     l1812:
  2378                           
  2379                           ;ADC.c: 24:             ADCON1bits.VCFG1 = 0;
  2380  0E0C  129F               	bcf	31,5	;volatile
  2381  0E0D                     l1814:
  2382                           
  2383                           ;ADC.c: 25:             ADCON1bits.VCFG0 = 0;
  2384  0E0D  121F               	bcf	31,4	;volatile
  2385                           
  2386                           ;ADC.c: 26:             break;
  2387  0E0E  2E5E               	goto	l191
  2388  0E0F                     l1816:
  2389                           
  2390                           ;ADC.c: 28:             ADCON0bits.CHS = 0;
  2391  0E0F  30C3               	movlw	-61
  2392  0E10  1283               	bcf	3,5	;RP0=0, select bank0
  2393  0E11  1303               	bcf	3,6	;RP1=0, select bank0
  2394  0E12  059F               	andwf	31,f	;volatile
  2395  0E13                     l1818:
  2396                           
  2397                           ;ADC.c: 29:             _delay((unsigned long)((100)*(4000000/4000000.0)));
  2398  0E13  3021               	movlw	33
  2399  0E14  00F3               	movwf	??_config_ADC
  2400  0E15                     u3167:
  2401  0E15  0BF3               	decfsz	??_config_ADC,f
  2402  0E16  2E15               	goto	u3167
  2403  0E17                     l1820:
  2404                           
  2405                           ;ADC.c: 31:             ADCON0bits.ADCS0 = 1;
  2406  0E17  1283               	bcf	3,5	;RP0=0, select bank0
  2407  0E18  1303               	bcf	3,6	;RP1=0, select bank0
  2408  0E19  171F               	bsf	31,6	;volatile
  2409  0E1A                     l1822:
  2410                           
  2411                           ;ADC.c: 32:             ADCON0bits.ADCS1 = 0;
  2412  0E1A  139F               	bcf	31,7	;volatile
  2413  0E1B                     l1824:
  2414                           
  2415                           ;ADC.c: 33:             ADCON0bits.ADON = 1;
  2416  0E1B  141F               	bsf	31,0	;volatile
  2417  0E1C                     l1826:
  2418                           
  2419                           ;ADC.c: 34:             ADCON1bits.ADFM = 0;
  2420  0E1C  1683               	bsf	3,5	;RP0=1, select bank1
  2421  0E1D  1303               	bcf	3,6	;RP1=0, select bank1
  2422  0E1E  139F               	bcf	31,7	;volatile
  2423  0E1F                     l1828:
  2424                           
  2425                           ;ADC.c: 35:             ADCON1bits.VCFG1 = 0;
  2426  0E1F  129F               	bcf	31,5	;volatile
  2427  0E20                     l1830:
  2428                           
  2429                           ;ADC.c: 36:             ADCON1bits.VCFG0 = 0;
  2430  0E20  121F               	bcf	31,4	;volatile
  2431                           
  2432                           ;ADC.c: 37:             break;
  2433  0E21  2E5E               	goto	l191
  2434  0E22                     l1832:
  2435                           
  2436                           ;ADC.c: 39:             ADCON0bits.CHS = 0;
  2437  0E22  30C3               	movlw	-61
  2438  0E23  1283               	bcf	3,5	;RP0=0, select bank0
  2439  0E24  1303               	bcf	3,6	;RP1=0, select bank0
  2440  0E25  059F               	andwf	31,f	;volatile
  2441  0E26                     l1834:
  2442                           
  2443                           ;ADC.c: 40:             _delay((unsigned long)((100)*(4000000/4000000.0)));
  2444  0E26  3021               	movlw	33
  2445  0E27  00F3               	movwf	??_config_ADC
  2446  0E28                     u3177:
  2447  0E28  0BF3               	decfsz	??_config_ADC,f
  2448  0E29  2E28               	goto	u3177
  2449  0E2A                     l1836:
  2450                           
  2451                           ;ADC.c: 42:             ADCON0bits.ADCS0 = 0;
  2452  0E2A  1283               	bcf	3,5	;RP0=0, select bank0
  2453  0E2B  1303               	bcf	3,6	;RP1=0, select bank0
  2454  0E2C  131F               	bcf	31,6	;volatile
  2455  0E2D                     l1838:
  2456                           
  2457                           ;ADC.c: 43:             ADCON0bits.ADCS1 = 1;
  2458  0E2D  179F               	bsf	31,7	;volatile
  2459  0E2E                     l1840:
  2460                           
  2461                           ;ADC.c: 44:             ADCON0bits.ADON = 1;
  2462  0E2E  141F               	bsf	31,0	;volatile
  2463  0E2F                     l1842:
  2464                           
  2465                           ;ADC.c: 45:             ADCON1bits.ADFM = 0;
  2466  0E2F  1683               	bsf	3,5	;RP0=1, select bank1
  2467  0E30  1303               	bcf	3,6	;RP1=0, select bank1
  2468  0E31  139F               	bcf	31,7	;volatile
  2469  0E32                     l1844:
  2470                           
  2471                           ;ADC.c: 46:             ADCON1bits.VCFG1 = 0;
  2472  0E32  129F               	bcf	31,5	;volatile
  2473  0E33                     l1846:
  2474                           
  2475                           ;ADC.c: 47:             ADCON1bits.VCFG0 = 0;
  2476  0E33  121F               	bcf	31,4	;volatile
  2477                           
  2478                           ;ADC.c: 48:             break;
  2479  0E34  2E5E               	goto	l191
  2480  0E35                     l1848:
  2481                           
  2482                           ;ADC.c: 50:             ADCON0bits.CHS = 0;
  2483  0E35  30C3               	movlw	-61
  2484  0E36  1283               	bcf	3,5	;RP0=0, select bank0
  2485  0E37  1303               	bcf	3,6	;RP1=0, select bank0
  2486  0E38  059F               	andwf	31,f	;volatile
  2487  0E39                     l1850:
  2488                           
  2489                           ;ADC.c: 51:             _delay((unsigned long)((100)*(4000000/4000000.0)));
  2490  0E39  3021               	movlw	33
  2491  0E3A  00F3               	movwf	??_config_ADC
  2492  0E3B                     u3187:
  2493  0E3B  0BF3               	decfsz	??_config_ADC,f
  2494  0E3C  2E3B               	goto	u3187
  2495  0E3D                     l1852:
  2496                           
  2497                           ;ADC.c: 53:             ADCON0bits.ADCS0 = 1;
  2498  0E3D  1283               	bcf	3,5	;RP0=0, select bank0
  2499  0E3E  1303               	bcf	3,6	;RP1=0, select bank0
  2500  0E3F  171F               	bsf	31,6	;volatile
  2501  0E40                     l1854:
  2502                           
  2503                           ;ADC.c: 54:             ADCON0bits.ADCS1 = 1;
  2504  0E40  179F               	bsf	31,7	;volatile
  2505  0E41                     l1856:
  2506                           
  2507                           ;ADC.c: 55:             ADCON0bits.ADON = 1;
  2508  0E41  141F               	bsf	31,0	;volatile
  2509  0E42                     l1858:
  2510                           
  2511                           ;ADC.c: 56:             ADCON1bits.ADFM = 0;
  2512  0E42  1683               	bsf	3,5	;RP0=1, select bank1
  2513  0E43  1303               	bcf	3,6	;RP1=0, select bank1
  2514  0E44  139F               	bcf	31,7	;volatile
  2515  0E45                     l1860:
  2516                           
  2517                           ;ADC.c: 57:             ADCON1bits.VCFG1 = 0;
  2518  0E45  129F               	bcf	31,5	;volatile
  2519  0E46                     l1862:
  2520                           
  2521                           ;ADC.c: 58:             ADCON1bits.VCFG0 = 0;
  2522  0E46  121F               	bcf	31,4	;volatile
  2523                           
  2524                           ;ADC.c: 59:             break;
  2525  0E47  2E5E               	goto	l191
  2526  0E48                     l1866:
  2527  0E48  0875               	movf	config_ADC@frec,w
  2528  0E49  00F3               	movwf	??_config_ADC
  2529  0E4A  01F4               	clrf	??_config_ADC+1
  2530                           
  2531                           ; Switch on 2 bytes has been partitioned into a top level switch of size 1, and 1 sub-sw
      +                          itches
  2532                           ; Switch size 1, requested type "simple"
  2533                           ; Number of cases is 1, Range of values is 0 to 0
  2534                           ; switch strategies available:
  2535                           ; Name         Instructions Cycles
  2536                           ; simple_byte            4     3 (average)
  2537                           ; direct_byte           11     8 (fixed)
  2538                           ; jumptable            260     6 (fixed)
  2539                           ;	Chosen strategy is simple_byte
  2540  0E4B  0874               	movf	??_config_ADC+1,w
  2541  0E4C  3A00               	xorlw	0	; case 0
  2542  0E4D  1903               	skipnz
  2543  0E4E  2E50               	goto	l3018
  2544  0E4F  2E5E               	goto	l191
  2545  0E50                     l3018:
  2546                           
  2547                           ; Switch size 1, requested type "simple"
  2548                           ; Number of cases is 4, Range of values is 0 to 3
  2549                           ; switch strategies available:
  2550                           ; Name         Instructions Cycles
  2551                           ; simple_byte           13     7 (average)
  2552                           ; direct_byte           20     8 (fixed)
  2553                           ; jumptable            260     6 (fixed)
  2554                           ;	Chosen strategy is simple_byte
  2555  0E50  0873               	movf	??_config_ADC,w
  2556  0E51  3A00               	xorlw	0	; case 0
  2557  0E52  1903               	skipnz
  2558  0E53  2DFC               	goto	l1800
  2559  0E54  3A01               	xorlw	1	; case 1
  2560  0E55  1903               	skipnz
  2561  0E56  2E0F               	goto	l1816
  2562  0E57  3A03               	xorlw	3	; case 2
  2563  0E58  1903               	skipnz
  2564  0E59  2E22               	goto	l1832
  2565  0E5A  3A01               	xorlw	1	; case 3
  2566  0E5B  1903               	skipnz
  2567  0E5C  2E35               	goto	l1848
  2568  0E5D  2E5E               	goto	l191
  2569  0E5E                     l191:
  2570  0E5E  0008               	return
  2571  0E5F                     __end_of_config_ADC:
  2572                           
  2573                           	psect	text4
  2574  0B4F                     __ptext4:	
  2575 ;; *************** function _printf *****************
  2576 ;; Defined at:
  2577 ;;		line 13 in file "C:\Program Files\Microchip\xc8\v2.31\pic\sources\c90\common\printf.c"
  2578 ;; Parameters:    Size  Location     Type
  2579 ;;  f               1    wreg     PTR const unsigned char 
  2580 ;;		 -> STR_10(38), STR_9(41), STR_8(40), STR_7(2), 
  2581 ;;		 -> STR_6(17), STR_5(2), STR_4(17), 
  2582 ;; Auto vars:     Size  Location     Type
  2583 ;;  f               1   23[BANK0 ] PTR const unsigned char 
  2584 ;;		 -> STR_10(38), STR_9(41), STR_8(40), STR_7(2), 
  2585 ;;		 -> STR_6(17), STR_5(2), STR_4(17), 
  2586 ;;  pb              2   24[BANK0 ] struct __prbuf
  2587 ;;  ap              1   22[BANK0 ] PTR void [1]
  2588 ;;		 -> ?_sprintf(2), ?_printf(2), 
  2589 ;; Return value:  Size  Location     Type
  2590 ;;                  2   24[None  ] int 
  2591 ;; Registers used:
  2592 ;;		wreg, fsr0l, fsr0h, status,2, status,0, btemp+1, pclath, cstack
  2593 ;; Tracked objects:
  2594 ;;		On entry : 0/0
  2595 ;;		On exit  : 0/0
  2596 ;;		Unchanged: 0/0
  2597 ;; Data sizes:     COMMON   BANK0   BANK1   BANK3   BANK2
  2598 ;;      Params:         0       0       0       0       0
  2599 ;;      Locals:         0       4       0       0       0
  2600 ;;      Temps:          0       2       0       0       0
  2601 ;;      Totals:         0       6       0       0       0
  2602 ;;Total ram usage:        6 bytes
  2603 ;; Hardware stack levels used:    1
  2604 ;; Hardware stack levels required when called:    3
  2605 ;; This function calls:
  2606 ;;		__doprnt
  2607 ;; This function is called by:
  2608 ;;		_main
  2609 ;; This function uses a non-reentrant model
  2610 ;;
  2611                           
  2612                           
  2613                           ;psect for function _printf
  2614  0B4F                     _printf:
  2615                           
  2616                           ;incstack = 0
  2617                           ; Regs used in _printf: [wreg-fsr0h+status,2+status,0+btemp+1+pclath+cstack]
  2618                           ;printf@f stored from wreg
  2619  0B4F  1283               	bcf	3,5	;RP0=0, select bank0
  2620  0B50  1303               	bcf	3,6	;RP1=0, select bank0
  2621  0B51  00B7               	movwf	printf@f
  2622  0B52                     l2814:
  2623  0B52  01B8               	clrf	printf@pb
  2624  0B53                     l2816:
  2625  0B53  3001               	movlw	(low (fp__putch-fpbase))& (0+255)
  2626  0B54  00B4               	movwf	??_printf
  2627  0B55  0834               	movf	??_printf,w
  2628  0B56  00B9               	movwf	low ((printf@pb| 0+1))
  2629  0B57                     l2818:
  2630  0B57  3070               	movlw	(low (?_printf| 0))& (0+255)
  2631  0B58  00B4               	movwf	??_printf
  2632  0B59  0834               	movf	??_printf,w
  2633  0B5A  00B6               	movwf	printf@ap
  2634  0B5B                     l2820:
  2635                           
  2636                           ;	Return value of _printf is never used
  2637  0B5B  0837               	movf	printf@f,w
  2638  0B5C  00B4               	movwf	??_printf
  2639  0B5D  0834               	movf	??_printf,w
  2640  0B5E  00A9               	movwf	__doprnt@f
  2641  0B5F  3036               	movlw	(low (printf@ap| 0))& (0+255)
  2642  0B60  00B5               	movwf	??_printf+1
  2643  0B61  0835               	movf	??_printf+1,w
  2644  0B62  00AA               	movwf	__doprnt@ap
  2645  0B63  3038               	movlw	(low (printf@pb| 0))& (0+255)
  2646  0B64  120A  118A  2638  120A  158A  	fcall	__doprnt
  2647  0B69                     l751:
  2648  0B69  0008               	return
  2649  0B6A                     __end_of_printf:
  2650                           
  2651                           	psect	text5
  2652  0638                     __ptext5:	
  2653 ;; *************** function __doprnt *****************
  2654 ;; Defined at:
  2655 ;;		line 471 in file "C:\Program Files\Microchip\xc8\v2.31\pic\sources\c90\common\doprnt.c"
  2656 ;; Parameters:    Size  Location     Type
  2657 ;;  pb              1    wreg     PTR struct __prbuf
  2658 ;;		 -> sprintf@pb(2), printf@pb(2), 
  2659 ;;  f               1    9[BANK0 ] PTR const unsigned char 
  2660 ;;		 -> STR_10(38), STR_9(41), STR_8(40), STR_7(2), 
  2661 ;;		 -> STR_6(17), STR_5(2), STR_4(17), STR_3(6), 
  2662 ;;		 -> STR_2(8), 
  2663 ;;  ap              1   10[BANK0 ] PTR PTR void 
  2664 ;;		 -> sprintf@ap(1), printf@ap(1), 
  2665 ;; Auto vars:     Size  Location     Type
  2666 ;;  pb              1   19[BANK0 ] PTR struct __prbuf
  2667 ;;		 -> sprintf@pb(2), printf@pb(2), 
  2668 ;;  tmpval          4    0        struct .
  2669 ;;  val             2   16[BANK0 ] unsigned int 
  2670 ;;  cp              2    0        PTR const unsigned char 
  2671 ;;  len             2    0        unsigned int 
  2672 ;;  c               1   18[BANK0 ] unsigned char 
  2673 ;;  prec            1   15[BANK0 ] char 
  2674 ;;  flag            1   14[BANK0 ] unsigned char 
  2675 ;; Return value:  Size  Location     Type
  2676 ;;                  2    9[BANK0 ] int 
  2677 ;; Registers used:
  2678 ;;		wreg, fsr0l, fsr0h, status,2, status,0, btemp+1, pclath, cstack
  2679 ;; Tracked objects:
  2680 ;;		On entry : 0/0
  2681 ;;		On exit  : 0/0
  2682 ;;		Unchanged: 0/0
  2683 ;; Data sizes:     COMMON   BANK0   BANK1   BANK3   BANK2
  2684 ;;      Params:         0       2       0       0       0
  2685 ;;      Locals:         0       6       0       0       0
  2686 ;;      Temps:          0       3       0       0       0
  2687 ;;      Totals:         0      11       0       0       0
  2688 ;;Total ram usage:       11 bytes
  2689 ;; Hardware stack levels used:    1
  2690 ;; Hardware stack levels required when called:    2
  2691 ;; This function calls:
  2692 ;;		Absolute function
  2693 ;;		___lwdiv
  2694 ;;		___lwmod
  2695 ;;		_putch
  2696 ;; This function is called by:
  2697 ;;		_printf
  2698 ;;		_sprintf
  2699 ;; This function uses a non-reentrant model
  2700 ;;
  2701                           
  2702                           
  2703                           ;psect for function __doprnt
  2704  0638                     __doprnt:
  2705                           
  2706                           ;incstack = 0
  2707                           ; Regs used in __doprnt: [wreg-fsr0h+status,2+status,0+btemp+1+pclath+cstack]
  2708                           ;__doprnt@pb stored from wreg
  2709  0638  1283               	bcf	3,5	;RP0=0, select bank0
  2710  0639  1303               	bcf	3,6	;RP1=0, select bank0
  2711  063A  00B3               	movwf	__doprnt@pb
  2712  063B                     l2684:
  2713                           
  2714                           ;C:\Program Files\Microchip\xc8\v2.31\pic\sources\c90\common\doprnt.c: 471: _doprnt(stru
      +                          ct __prbuf * pb, register const char * f, register va_list ap);C:\Program Files\Microchi
      +                          p\xc8\v2.31\pic\sources\c90\common\doprnt.c: 472: {;C:\Program Files\Microchip\xc8\v2.31
      +                          \pic\sources\c90\common\doprnt.c: 512:  char c;;C:\Program Files\Microchip\xc8\v2.31\pic
      +                          \sources\c90\common\doprnt.c: 521:  signed char prec;;C:\Program Files\Microchip\xc8\v2.
      +                          31\pic\sources\c90\common\doprnt.c: 525:  unsigned char flag;;C:\Program Files\Microchip
      +                          \xc8\v2.31\pic\sources\c90\common\doprnt.c: 543:  } tmpval;
  2715  063B  2F57               	goto	l2746
  2716  063C                     l2686:
  2717                           
  2718                           ;C:\Program Files\Microchip\xc8\v2.31\pic\sources\c90\common\doprnt.c: 555:   if(c != '%
      +                          ')
  2719  063C  3025               	movlw	37
  2720  063D  0632               	xorwf	__doprnt@c,w
  2721  063E  1903               	btfsc	3,2
  2722  063F  2E41               	goto	u2651
  2723  0640  2E42               	goto	u2650
  2724  0641                     u2651:
  2725  0641  2E68               	goto	l2696
  2726  0642                     u2650:
  2727  0642                     l2688:
  2728  0642  0A33               	incf	__doprnt@pb,w
  2729  0643  0084               	movwf	4
  2730  0644  1383               	bcf	3,7	;select IRP bank0
  2731  0645  0800               	movf	0,w
  2732  0646  1903               	btfsc	3,2
  2733  0647  2E49               	goto	u2661
  2734  0648  2E4A               	goto	u2660
  2735  0649                     u2661:
  2736  0649  2E59               	goto	l2692
  2737  064A                     u2660:
  2738  064A                     l2690:
  2739  064A  0832               	movf	__doprnt@c,w
  2740  064B  00AB               	movwf	??__doprnt
  2741  064C  082B               	movf	??__doprnt,w
  2742  064D  00F3               	movwf	putch@data
  2743  064E  0A33               	incf	__doprnt@pb,w
  2744  064F  0084               	movwf	4
  2745  0650  0800               	movf	0,w
  2746  0651  120A  118A  2023  120A  118A  	fcall	fptable
  2747  0656  1283               	bcf	3,5	;RP0=0, select bank0
  2748  0657  1303               	bcf	3,6	;RP1=0, select bank0
  2749  0658  2E3B               	goto	l2684
  2750  0659                     l2692:
  2751  0659  0832               	movf	__doprnt@c,w
  2752  065A  00AB               	movwf	??__doprnt
  2753  065B  0833               	movf	__doprnt@pb,w
  2754  065C  0084               	movwf	4
  2755  065D  0800               	movf	0,w
  2756  065E  0084               	movwf	4
  2757  065F  082B               	movf	??__doprnt,w
  2758  0660  0080               	movwf	0
  2759  0661                     l2694:
  2760  0661  3001               	movlw	1
  2761  0662  00AB               	movwf	??__doprnt
  2762  0663  0833               	movf	__doprnt@pb,w
  2763  0664  0084               	movwf	4
  2764  0665  082B               	movf	??__doprnt,w
  2765  0666  0780               	addwf	0,f
  2766  0667  2E3B               	goto	l2684
  2767  0668                     l2696:
  2768                           
  2769                           ;C:\Program Files\Microchip\xc8\v2.31\pic\sources\c90\common\doprnt.c: 565:   flag = 0;
  2770  0668  01AE               	clrf	__doprnt@flag
  2771  0669                     l2700:	
  2772                           ;C:\Program Files\Microchip\xc8\v2.31\pic\sources\c90\common\doprnt.c: 661:   switch(c =
      +                           *f++) {
  2773                           
  2774  0669  3001               	movlw	1
  2775  066A  07A9               	addwf	__doprnt@f,f
  2776  066B  30FF               	movlw	-1
  2777  066C  0729               	addwf	__doprnt@f,w
  2778  066D  0084               	movwf	4
  2779  066E  120A  158A  200A  120A  118A  	fcall	stringdir
  2780  0673  00B2               	movwf	__doprnt@c
  2781  0674  00AB               	movwf	??__doprnt
  2782  0675  01AC               	clrf	??__doprnt+1
  2783                           
  2784                           ; Switch on 2 bytes has been partitioned into a top level switch of size 1, and 1 sub-sw
      +                          itches
  2785                           ; Switch size 1, requested type "simple"
  2786                           ; Number of cases is 1, Range of values is 0 to 0
  2787                           ; switch strategies available:
  2788                           ; Name         Instructions Cycles
  2789                           ; simple_byte            4     3 (average)
  2790                           ; direct_byte           11     8 (fixed)
  2791                           ; jumptable            260     6 (fixed)
  2792                           ;	Chosen strategy is simple_byte
  2793  0676  082C               	movf	??__doprnt+1,w
  2794  0677  3A00               	xorlw	0	; case 0
  2795  0678  1903               	skipnz
  2796  0679  2E7B               	goto	l3020
  2797  067A  2F57               	goto	l2746
  2798  067B                     l3020:
  2799                           
  2800                           ; Switch size 1, requested type "simple"
  2801                           ; Number of cases is 3, Range of values is 0 to 105
  2802                           ; switch strategies available:
  2803                           ; Name         Instructions Cycles
  2804                           ; simple_byte           10     6 (average)
  2805                           ; jumptable            260     6 (fixed)
  2806                           ;	Chosen strategy is simple_byte
  2807  067B  082B               	movf	??__doprnt,w
  2808  067C  3A00               	xorlw	0	; case 0
  2809  067D  1903               	skipnz
  2810  067E  2F6B               	goto	l2748
  2811  067F  3A64               	xorlw	100	; case 100
  2812  0680  1903               	skipnz
  2813  0681  2E86               	goto	l2702
  2814  0682  3A0D               	xorlw	13	; case 105
  2815  0683  1903               	skipnz
  2816  0684  2E86               	goto	l2702
  2817  0685  2F57               	goto	l2746
  2818  0686                     l2702:
  2819                           
  2820                           ;C:\Program Files\Microchip\xc8\v2.31\pic\sources\c90\common\doprnt.c: 1279:   {;C:\Prog
      +                          ram Files\Microchip\xc8\v2.31\pic\sources\c90\common\doprnt.c: 1285:     val = (unsigned
      +                           int)(*(int *)__va_arg((*(int **)ap), (int)0));
  2821  0686  082A               	movf	__doprnt@ap,w
  2822  0687  0084               	movwf	4
  2823  0688  1383               	bcf	3,7	;select IRP bank0
  2824  0689  0800               	movf	0,w
  2825  068A  00AB               	movwf	??__doprnt
  2826  068B  3002               	movlw	2
  2827  068C  0780               	addwf	0,f
  2828  068D  082B               	movf	??__doprnt,w
  2829  068E  0084               	movwf	4
  2830  068F  0800               	movf	0,w
  2831  0690  00B0               	movwf	__doprnt@val
  2832  0691  0A84               	incf	4,f
  2833  0692  0800               	movf	0,w
  2834  0693  00B1               	movwf	__doprnt@val+1
  2835  0694                     l2704:
  2836                           
  2837                           ;C:\Program Files\Microchip\xc8\v2.31\pic\sources\c90\common\doprnt.c: 1287:    if((int)
      +                          val < 0) {
  2838  0694  1FB1               	btfss	__doprnt@val+1,7
  2839  0695  2E97               	goto	u2671
  2840  0696  2E98               	goto	u2670
  2841  0697                     u2671:
  2842  0697  2EA1               	goto	l2710
  2843  0698                     u2670:
  2844  0698                     l2706:
  2845                           
  2846                           ;C:\Program Files\Microchip\xc8\v2.31\pic\sources\c90\common\doprnt.c: 1288:     flag |=
      +                           0x03;
  2847  0698  3003               	movlw	3
  2848  0699  00AB               	movwf	??__doprnt
  2849  069A  082B               	movf	??__doprnt,w
  2850  069B  04AE               	iorwf	__doprnt@flag,f
  2851  069C                     l2708:
  2852                           
  2853                           ;C:\Program Files\Microchip\xc8\v2.31\pic\sources\c90\common\doprnt.c: 1289:     val = -
      +                          val;
  2854  069C  09B0               	comf	__doprnt@val,f
  2855  069D  09B1               	comf	__doprnt@val+1,f
  2856  069E  0AB0               	incf	__doprnt@val,f
  2857  069F  1903               	skipnz
  2858  06A0  0AB1               	incf	__doprnt@val+1,f
  2859  06A1                     l2710:
  2860                           
  2861                           ;C:\Program Files\Microchip\xc8\v2.31\pic\sources\c90\common\doprnt.c: 1292:   };C:\Prog
      +                          ram Files\Microchip\xc8\v2.31\pic\sources\c90\common\doprnt.c: 1331:    for(c = 1 ; c !=
      +                           sizeof dpowers/sizeof dpowers[0] ; c++)
  2862  06A1  01B2               	clrf	__doprnt@c
  2863  06A2  0AB2               	incf	__doprnt@c,f
  2864  06A3                     l2716:
  2865                           
  2866                           ;C:\Program Files\Microchip\xc8\v2.31\pic\sources\c90\common\doprnt.c: 1332:     if(val 
      +                          < dpowers[c])
  2867  06A3  0832               	movf	__doprnt@c,w
  2868  06A4  00AB               	movwf	??__doprnt
  2869  06A5  072B               	addwf	??__doprnt,w
  2870  06A6  3E01               	addlw	low ((_dpowers-__stringbase)| (0+32768))
  2871  06A7  0084               	movwf	4
  2872  06A8  120A  158A  200A  120A  118A  	fcall	stringdir
  2873  06AD  00AC               	movwf	??__doprnt+1
  2874  06AE  120A  158A  200A  120A  118A  	fcall	stringdir
  2875  06B3  00AD               	movwf	??__doprnt+2
  2876  06B4  082D               	movf	??__doprnt+2,w
  2877  06B5  0231               	subwf	__doprnt@val+1,w
  2878  06B6  1D03               	skipz
  2879  06B7  2EBA               	goto	u2685
  2880  06B8  082C               	movf	??__doprnt+1,w
  2881  06B9  0230               	subwf	__doprnt@val,w
  2882  06BA                     u2685:
  2883  06BA  1803               	skipnc
  2884  06BB  2EBD               	goto	u2681
  2885  06BC  2EBE               	goto	u2680
  2886  06BD                     u2681:
  2887  06BD  2EBF               	goto	l2720
  2888  06BE                     u2680:
  2889  06BE  2EC9               	goto	l2722
  2890  06BF                     l2720:
  2891  06BF  3001               	movlw	1
  2892  06C0  00AB               	movwf	??__doprnt
  2893  06C1  082B               	movf	??__doprnt,w
  2894  06C2  07B2               	addwf	__doprnt@c,f
  2895  06C3  3005               	movlw	5
  2896  06C4  0632               	xorwf	__doprnt@c,w
  2897  06C5  1D03               	btfss	3,2
  2898  06C6  2EC8               	goto	u2691
  2899  06C7  2EC9               	goto	u2690
  2900  06C8                     u2691:
  2901  06C8  2EA3               	goto	l2716
  2902  06C9                     u2690:
  2903  06C9                     l2722:
  2904                           
  2905                           ;C:\Program Files\Microchip\xc8\v2.31\pic\sources\c90\common\doprnt.c: 1448:   {;C:\Prog
      +                          ram Files\Microchip\xc8\v2.31\pic\sources\c90\common\doprnt.c: 1464:    if(flag & 0x03)
  2906  06C9  082E               	movf	__doprnt@flag,w
  2907  06CA  3903               	andlw	3
  2908  06CB  1903               	btfsc	3,2
  2909  06CC  2ECE               	goto	u2701
  2910  06CD  2ECF               	goto	u2700
  2911  06CE                     u2701:
  2912  06CE  2EF2               	goto	l2732
  2913  06CF                     u2700:
  2914  06CF                     l2724:
  2915  06CF  0A33               	incf	__doprnt@pb,w
  2916  06D0  0084               	movwf	4
  2917  06D1  1383               	bcf	3,7	;select IRP bank0
  2918  06D2  0800               	movf	0,w
  2919  06D3  1903               	btfsc	3,2
  2920  06D4  2ED6               	goto	u2711
  2921  06D5  2ED7               	goto	u2710
  2922  06D6                     u2711:
  2923  06D6  2EE4               	goto	l2728
  2924  06D7                     u2710:
  2925  06D7                     l2726:
  2926  06D7  302D               	movlw	45
  2927  06D8  00AB               	movwf	??__doprnt
  2928  06D9  082B               	movf	??__doprnt,w
  2929  06DA  00F3               	movwf	putch@data
  2930  06DB  0A33               	incf	__doprnt@pb,w
  2931  06DC  0084               	movwf	4
  2932  06DD  0800               	movf	0,w
  2933  06DE  120A  118A  2023  120A  118A  	fcall	fptable
  2934  06E3  2EF2               	goto	l2732
  2935  06E4                     l2728:
  2936  06E4  302D               	movlw	45
  2937  06E5  00AB               	movwf	??__doprnt
  2938  06E6  0833               	movf	__doprnt@pb,w
  2939  06E7  0084               	movwf	4
  2940  06E8  0800               	movf	0,w
  2941  06E9  0084               	movwf	4
  2942  06EA  082B               	movf	??__doprnt,w
  2943  06EB  0080               	movwf	0
  2944  06EC                     l2730:
  2945  06EC  3001               	movlw	1
  2946  06ED  00AB               	movwf	??__doprnt
  2947  06EE  0833               	movf	__doprnt@pb,w
  2948  06EF  0084               	movwf	4
  2949  06F0  082B               	movf	??__doprnt,w
  2950  06F1  0780               	addwf	0,f
  2951  06F2                     l2732:
  2952                           
  2953                           ;C:\Program Files\Microchip\xc8\v2.31\pic\sources\c90\common\doprnt.c: 1495:   };C:\Prog
      +                          ram Files\Microchip\xc8\v2.31\pic\sources\c90\common\doprnt.c: 1498:   prec = c;
  2954  06F2  1283               	bcf	3,5	;RP0=0, select bank0
  2955  06F3  1303               	bcf	3,6	;RP1=0, select bank0
  2956  06F4  0832               	movf	__doprnt@c,w
  2957  06F5  00AB               	movwf	??__doprnt
  2958  06F6  082B               	movf	??__doprnt,w
  2959  06F7  00AF               	movwf	__doprnt@prec
  2960                           
  2961                           ;C:\Program Files\Microchip\xc8\v2.31\pic\sources\c90\common\doprnt.c: 1500:   while(pre
      +                          c--) {
  2962  06F8  2F4C               	goto	l2744
  2963  06F9                     l2734:
  2964                           
  2965                           ;C:\Program Files\Microchip\xc8\v2.31\pic\sources\c90\common\doprnt.c: 1504:    {;C:\Pro
      +                          gram Files\Microchip\xc8\v2.31\pic\sources\c90\common\doprnt.c: 1515:     c = (val / dpo
      +                          wers[(unsigned char)prec]) % 10 + '0';
  2966  06F9  300A               	movlw	10
  2967  06FA  00A3               	movwf	___lwmod@divisor
  2968  06FB  3000               	movlw	0
  2969  06FC  00A4               	movwf	___lwmod@divisor+1
  2970  06FD  082F               	movf	__doprnt@prec,w
  2971  06FE  00AB               	movwf	??__doprnt
  2972  06FF  072B               	addwf	??__doprnt,w
  2973  0700  3E01               	addlw	low ((_dpowers-__stringbase)| (0+32768))
  2974  0701  0084               	movwf	4
  2975  0702  120A  158A  200A  120A  118A  	fcall	stringdir
  2976  0707  00F3               	movwf	___lwdiv@divisor
  2977  0708  120A  158A  200A  120A  118A  	fcall	stringdir
  2978  070D  00F4               	movwf	___lwdiv@divisor+1
  2979  070E  0831               	movf	__doprnt@val+1,w
  2980  070F  00F6               	movwf	___lwdiv@dividend+1
  2981  0710  0830               	movf	__doprnt@val,w
  2982  0711  00F5               	movwf	___lwdiv@dividend
  2983  0712  120A  158A  24B3  120A  118A  	fcall	___lwdiv
  2984  0717  0874               	movf	?___lwdiv+1,w
  2985  0718  1283               	bcf	3,5	;RP0=0, select bank0
  2986  0719  1303               	bcf	3,6	;RP1=0, select bank0
  2987  071A  00A6               	movwf	___lwmod@dividend+1
  2988  071B  0873               	movf	?___lwdiv,w
  2989  071C  00A5               	movwf	___lwmod@dividend
  2990  071D  120A  158A  2437  120A  118A  	fcall	___lwmod
  2991  0722  1283               	bcf	3,5	;RP0=0, select bank0
  2992  0723  1303               	bcf	3,6	;RP1=0, select bank0
  2993  0724  0823               	movf	?___lwmod,w
  2994  0725  3E30               	addlw	48
  2995  0726  00AC               	movwf	??__doprnt+1
  2996  0727  082C               	movf	??__doprnt+1,w
  2997  0728  00B2               	movwf	__doprnt@c
  2998  0729                     l2736:
  2999  0729  0A33               	incf	__doprnt@pb,w
  3000  072A  0084               	movwf	4
  3001  072B  1383               	bcf	3,7	;select IRP bank0
  3002  072C  0800               	movf	0,w
  3003  072D  1903               	btfsc	3,2
  3004  072E  2F30               	goto	u2721
  3005  072F  2F31               	goto	u2720
  3006  0730                     u2721:
  3007  0730  2F3E               	goto	l2740
  3008  0731                     u2720:
  3009  0731                     l2738:
  3010  0731  0832               	movf	__doprnt@c,w
  3011  0732  00AB               	movwf	??__doprnt
  3012  0733  082B               	movf	??__doprnt,w
  3013  0734  00F3               	movwf	putch@data
  3014  0735  0A33               	incf	__doprnt@pb,w
  3015  0736  0084               	movwf	4
  3016  0737  0800               	movf	0,w
  3017  0738  120A  118A  2023  120A  118A  	fcall	fptable
  3018  073D  2F4C               	goto	l2744
  3019  073E                     l2740:
  3020  073E  0832               	movf	__doprnt@c,w
  3021  073F  00AB               	movwf	??__doprnt
  3022  0740  0833               	movf	__doprnt@pb,w
  3023  0741  0084               	movwf	4
  3024  0742  0800               	movf	0,w
  3025  0743  0084               	movwf	4
  3026  0744  082B               	movf	??__doprnt,w
  3027  0745  0080               	movwf	0
  3028  0746                     l2742:
  3029  0746  3001               	movlw	1
  3030  0747  00AB               	movwf	??__doprnt
  3031  0748  0833               	movf	__doprnt@pb,w
  3032  0749  0084               	movwf	4
  3033  074A  082B               	movf	??__doprnt,w
  3034  074B  0780               	addwf	0,f
  3035  074C                     l2744:
  3036                           
  3037                           ;C:\Program Files\Microchip\xc8\v2.31\pic\sources\c90\common\doprnt.c: 1500:   while(pre
      +                          c--) {
  3038  074C  30FF               	movlw	255
  3039  074D  1283               	bcf	3,5	;RP0=0, select bank0
  3040  074E  1303               	bcf	3,6	;RP1=0, select bank0
  3041  074F  00AB               	movwf	??__doprnt
  3042  0750  082B               	movf	??__doprnt,w
  3043  0751  07AF               	addwf	__doprnt@prec,f
  3044  0752  0A2F               	incf	__doprnt@prec,w
  3045  0753  1D03               	btfss	3,2
  3046  0754  2F56               	goto	u2731
  3047  0755  2F57               	goto	u2730
  3048  0756                     u2731:
  3049  0756  2EF9               	goto	l2734
  3050  0757                     u2730:
  3051  0757                     l2746:
  3052                           
  3053                           ;C:\Program Files\Microchip\xc8\v2.31\pic\sources\c90\common\doprnt.c: 553:  while((c = 
      +                          *f++)) {
  3054  0757  3001               	movlw	1
  3055  0758  1283               	bcf	3,5	;RP0=0, select bank0
  3056  0759  1303               	bcf	3,6	;RP1=0, select bank0
  3057  075A  07A9               	addwf	__doprnt@f,f
  3058  075B  30FF               	movlw	-1
  3059  075C  0729               	addwf	__doprnt@f,w
  3060  075D  0084               	movwf	4
  3061  075E  120A  158A  200A  120A  118A  	fcall	stringdir
  3062  0763  00AB               	movwf	??__doprnt
  3063  0764  082B               	movf	??__doprnt,w
  3064  0765  00B2               	movwf	__doprnt@c
  3065  0766  0832               	movf	__doprnt@c,w
  3066  0767  1D03               	btfss	3,2
  3067  0768  2F6A               	goto	u2741
  3068  0769  2F6B               	goto	u2740
  3069  076A                     u2741:
  3070  076A  2E3C               	goto	l2686
  3071  076B                     u2740:
  3072  076B                     l2748:
  3073                           
  3074                           ;C:\Program Files\Microchip\xc8\v2.31\pic\sources\c90\common\doprnt.c: 1566:  return 0;
  3075  076B  01A9               	clrf	?__doprnt
  3076  076C  01AA               	clrf	?__doprnt+1
  3077  076D                     l789:
  3078  076D  0008               	return
  3079  076E                     __end_of__doprnt:
  3080                           
  3081                           	psect	text6
  3082  0B2C                     __ptext6:	
  3083 ;; *************** function _putch *****************
  3084 ;; Defined at:
  3085 ;;		line 197 in file "Lab02.c"
  3086 ;; Parameters:    Size  Location     Type
  3087 ;;  data            1    3[COMMON] unsigned char 
  3088 ;; Auto vars:     Size  Location     Type
  3089 ;;		None
  3090 ;; Return value:  Size  Location     Type
  3091 ;;                  1    wreg      void 
  3092 ;; Registers used:
  3093 ;;		wreg
  3094 ;; Tracked objects:
  3095 ;;		On entry : 0/0
  3096 ;;		On exit  : 0/0
  3097 ;;		Unchanged: 0/0
  3098 ;; Data sizes:     COMMON   BANK0   BANK1   BANK3   BANK2
  3099 ;;      Params:         1       0       0       0       0
  3100 ;;      Locals:         0       0       0       0       0
  3101 ;;      Temps:          0       0       0       0       0
  3102 ;;      Totals:         1       0       0       0       0
  3103 ;;Total ram usage:        1 bytes
  3104 ;; Hardware stack levels used:    1
  3105 ;; Hardware stack levels required when called:    1
  3106 ;; This function calls:
  3107 ;;		Nothing
  3108 ;; This function is called by:
  3109 ;;		_printf
  3110 ;;		__doprnt
  3111 ;; This function uses a non-reentrant model
  3112 ;;
  3113                           
  3114                           
  3115                           ;psect for function _putch
  3116  0B2C                     _putch:
  3117  0B2C                     l1730:	
  3118                           ;incstack = 0
  3119                           ; Regs used in _putch: [wreg]
  3120                           
  3121  0B2C                     l125:	
  3122                           ;Lab02.c: 198:     while(TXIF == 0);
  3123                           
  3124  0B2C  1283               	bcf	3,5	;RP0=0, select bank0
  3125  0B2D  1303               	bcf	3,6	;RP1=0, select bank0
  3126  0B2E  1E0C               	btfss	12,4	;volatile
  3127  0B2F  2B31               	goto	u1201
  3128  0B30  2B32               	goto	u1200
  3129  0B31                     u1201:
  3130  0B31  2B2C               	goto	l125
  3131  0B32                     u1200:
  3132  0B32                     l1732:
  3133                           
  3134                           ;Lab02.c: 199:     TXREG = data;
  3135  0B32  0873               	movf	putch@data,w
  3136  0B33  0099               	movwf	25	;volatile
  3137  0B34                     l128:
  3138  0B34  0008               	return
  3139  0B35                     __end_of_putch:
  3140                           
  3141                           	psect	text7
  3142  0C37                     __ptext7:	
  3143 ;; *************** function ___lwmod *****************
  3144 ;; Defined at:
  3145 ;;		line 5 in file "C:\Program Files\Microchip\xc8\v2.31\pic\sources\c90\common\lwmod.c"
  3146 ;; Parameters:    Size  Location     Type
  3147 ;;  divisor         2    3[BANK0 ] unsigned int 
  3148 ;;  dividend        2    5[BANK0 ] unsigned int 
  3149 ;; Auto vars:     Size  Location     Type
  3150 ;;  counter         1    8[BANK0 ] unsigned char 
  3151 ;; Return value:  Size  Location     Type
  3152 ;;                  2    3[BANK0 ] unsigned int 
  3153 ;; Registers used:
  3154 ;;		wreg, status,2, status,0
  3155 ;; Tracked objects:
  3156 ;;		On entry : 0/0
  3157 ;;		On exit  : 0/0
  3158 ;;		Unchanged: 0/0
  3159 ;; Data sizes:     COMMON   BANK0   BANK1   BANK3   BANK2
  3160 ;;      Params:         0       4       0       0       0
  3161 ;;      Locals:         0       1       0       0       0
  3162 ;;      Temps:          0       1       0       0       0
  3163 ;;      Totals:         0       6       0       0       0
  3164 ;;Total ram usage:        6 bytes
  3165 ;; Hardware stack levels used:    1
  3166 ;; Hardware stack levels required when called:    1
  3167 ;; This function calls:
  3168 ;;		Nothing
  3169 ;; This function is called by:
  3170 ;;		__doprnt
  3171 ;; This function uses a non-reentrant model
  3172 ;;
  3173                           
  3174                           
  3175                           ;psect for function ___lwmod
  3176  0C37                     ___lwmod:
  3177  0C37                     l1764:	
  3178                           ;incstack = 0
  3179                           ; Regs used in ___lwmod: [wreg+status,2+status,0]
  3180                           
  3181  0C37  1283               	bcf	3,5	;RP0=0, select bank0
  3182  0C38  1303               	bcf	3,6	;RP1=0, select bank0
  3183  0C39  0823               	movf	___lwmod@divisor,w
  3184  0C3A  0424               	iorwf	___lwmod@divisor+1,w
  3185  0C3B  1903               	btfsc	3,2
  3186  0C3C  2C3E               	goto	u1281
  3187  0C3D  2C3F               	goto	u1280
  3188  0C3E                     u1281:
  3189  0C3E  2C6E               	goto	l1782
  3190  0C3F                     u1280:
  3191  0C3F                     l1766:
  3192  0C3F  01A8               	clrf	___lwmod@counter
  3193  0C40  0AA8               	incf	___lwmod@counter,f
  3194  0C41  2C4D               	goto	l1772
  3195  0C42                     l1768:
  3196  0C42  3001               	movlw	1
  3197  0C43                     u1295:
  3198  0C43  1003               	clrc
  3199  0C44  0DA3               	rlf	___lwmod@divisor,f
  3200  0C45  0DA4               	rlf	___lwmod@divisor+1,f
  3201  0C46  3EFF               	addlw	-1
  3202  0C47  1D03               	skipz
  3203  0C48  2C43               	goto	u1295
  3204  0C49                     l1770:
  3205  0C49  3001               	movlw	1
  3206  0C4A  00A7               	movwf	??___lwmod
  3207  0C4B  0827               	movf	??___lwmod,w
  3208  0C4C  07A8               	addwf	___lwmod@counter,f
  3209  0C4D                     l1772:
  3210  0C4D  1FA4               	btfss	___lwmod@divisor+1,7
  3211  0C4E  2C50               	goto	u1301
  3212  0C4F  2C51               	goto	u1300
  3213  0C50                     u1301:
  3214  0C50  2C42               	goto	l1768
  3215  0C51                     u1300:
  3216  0C51                     l1774:
  3217  0C51  0824               	movf	___lwmod@divisor+1,w
  3218  0C52  0226               	subwf	___lwmod@dividend+1,w
  3219  0C53  1D03               	skipz
  3220  0C54  2C57               	goto	u1315
  3221  0C55  0823               	movf	___lwmod@divisor,w
  3222  0C56  0225               	subwf	___lwmod@dividend,w
  3223  0C57                     u1315:
  3224  0C57  1C03               	skipc
  3225  0C58  2C5A               	goto	u1311
  3226  0C59  2C5B               	goto	u1310
  3227  0C5A                     u1311:
  3228  0C5A  2C61               	goto	l1778
  3229  0C5B                     u1310:
  3230  0C5B                     l1776:
  3231  0C5B  0823               	movf	___lwmod@divisor,w
  3232  0C5C  02A5               	subwf	___lwmod@dividend,f
  3233  0C5D  0824               	movf	___lwmod@divisor+1,w
  3234  0C5E  1C03               	skipc
  3235  0C5F  03A6               	decf	___lwmod@dividend+1,f
  3236  0C60  02A6               	subwf	___lwmod@dividend+1,f
  3237  0C61                     l1778:
  3238  0C61  3001               	movlw	1
  3239  0C62                     u1325:
  3240  0C62  1003               	clrc
  3241  0C63  0CA4               	rrf	___lwmod@divisor+1,f
  3242  0C64  0CA3               	rrf	___lwmod@divisor,f
  3243  0C65  3EFF               	addlw	-1
  3244  0C66  1D03               	skipz
  3245  0C67  2C62               	goto	u1325
  3246  0C68                     l1780:
  3247  0C68  3001               	movlw	1
  3248  0C69  02A8               	subwf	___lwmod@counter,f
  3249  0C6A  1D03               	btfss	3,2
  3250  0C6B  2C6D               	goto	u1331
  3251  0C6C  2C6E               	goto	u1330
  3252  0C6D                     u1331:
  3253  0C6D  2C51               	goto	l1774
  3254  0C6E                     u1330:
  3255  0C6E                     l1782:
  3256  0C6E  0826               	movf	___lwmod@dividend+1,w
  3257  0C6F  00A4               	movwf	?___lwmod+1
  3258  0C70  0825               	movf	___lwmod@dividend,w
  3259  0C71  00A3               	movwf	?___lwmod
  3260  0C72                     l576:
  3261  0C72  0008               	return
  3262  0C73                     __end_of___lwmod:
  3263                           
  3264                           	psect	text8
  3265  0CB3                     __ptext8:	
  3266 ;; *************** function ___lwdiv *****************
  3267 ;; Defined at:
  3268 ;;		line 5 in file "C:\Program Files\Microchip\xc8\v2.31\pic\sources\c90\common\lwdiv.c"
  3269 ;; Parameters:    Size  Location     Type
  3270 ;;  divisor         2    3[COMMON] unsigned int 
  3271 ;;  dividend        2    5[COMMON] unsigned int 
  3272 ;; Auto vars:     Size  Location     Type
  3273 ;;  quotient        2    1[BANK0 ] unsigned int 
  3274 ;;  counter         1    0[BANK0 ] unsigned char 
  3275 ;; Return value:  Size  Location     Type
  3276 ;;                  2    3[COMMON] unsigned int 
  3277 ;; Registers used:
  3278 ;;		wreg, status,2, status,0
  3279 ;; Tracked objects:
  3280 ;;		On entry : 0/0
  3281 ;;		On exit  : 0/0
  3282 ;;		Unchanged: 0/0
  3283 ;; Data sizes:     COMMON   BANK0   BANK1   BANK3   BANK2
  3284 ;;      Params:         4       0       0       0       0
  3285 ;;      Locals:         0       3       0       0       0
  3286 ;;      Temps:          1       0       0       0       0
  3287 ;;      Totals:         5       3       0       0       0
  3288 ;;Total ram usage:        8 bytes
  3289 ;; Hardware stack levels used:    1
  3290 ;; Hardware stack levels required when called:    1
  3291 ;; This function calls:
  3292 ;;		Nothing
  3293 ;; This function is called by:
  3294 ;;		__doprnt
  3295 ;; This function uses a non-reentrant model
  3296 ;;
  3297                           
  3298                           
  3299                           ;psect for function ___lwdiv
  3300  0CB3                     ___lwdiv:
  3301  0CB3                     l2576:	
  3302                           ;incstack = 0
  3303                           ; Regs used in ___lwdiv: [wreg+status,2+status,0]
  3304                           
  3305  0CB3  1283               	bcf	3,5	;RP0=0, select bank0
  3306  0CB4  1303               	bcf	3,6	;RP1=0, select bank0
  3307  0CB5  01A1               	clrf	___lwdiv@quotient
  3308  0CB6  01A2               	clrf	___lwdiv@quotient+1
  3309  0CB7                     l2578:
  3310  0CB7  0873               	movf	___lwdiv@divisor,w
  3311  0CB8  0474               	iorwf	___lwdiv@divisor+1,w
  3312  0CB9  1903               	btfsc	3,2
  3313  0CBA  2CBC               	goto	u2391
  3314  0CBB  2CBD               	goto	u2390
  3315  0CBC                     u2391:
  3316  0CBC  2CF4               	goto	l2598
  3317  0CBD                     u2390:
  3318  0CBD                     l2580:
  3319  0CBD  01A0               	clrf	___lwdiv@counter
  3320  0CBE  0AA0               	incf	___lwdiv@counter,f
  3321  0CBF  2CCB               	goto	l2586
  3322  0CC0                     l2582:
  3323  0CC0  3001               	movlw	1
  3324  0CC1                     u2405:
  3325  0CC1  1003               	clrc
  3326  0CC2  0DF3               	rlf	___lwdiv@divisor,f
  3327  0CC3  0DF4               	rlf	___lwdiv@divisor+1,f
  3328  0CC4  3EFF               	addlw	-1
  3329  0CC5  1D03               	skipz
  3330  0CC6  2CC1               	goto	u2405
  3331  0CC7                     l2584:
  3332  0CC7  3001               	movlw	1
  3333  0CC8  00F7               	movwf	??___lwdiv
  3334  0CC9  0877               	movf	??___lwdiv,w
  3335  0CCA  07A0               	addwf	___lwdiv@counter,f
  3336  0CCB                     l2586:
  3337  0CCB  1FF4               	btfss	___lwdiv@divisor+1,7
  3338  0CCC  2CCE               	goto	u2411
  3339  0CCD  2CCF               	goto	u2410
  3340  0CCE                     u2411:
  3341  0CCE  2CC0               	goto	l2582
  3342  0CCF                     u2410:
  3343  0CCF                     l2588:
  3344  0CCF  3001               	movlw	1
  3345  0CD0                     u2425:
  3346  0CD0  1003               	clrc
  3347  0CD1  0DA1               	rlf	___lwdiv@quotient,f
  3348  0CD2  0DA2               	rlf	___lwdiv@quotient+1,f
  3349  0CD3  3EFF               	addlw	-1
  3350  0CD4  1D03               	skipz
  3351  0CD5  2CD0               	goto	u2425
  3352  0CD6  0874               	movf	___lwdiv@divisor+1,w
  3353  0CD7  0276               	subwf	___lwdiv@dividend+1,w
  3354  0CD8  1D03               	skipz
  3355  0CD9  2CDC               	goto	u2435
  3356  0CDA  0873               	movf	___lwdiv@divisor,w
  3357  0CDB  0275               	subwf	___lwdiv@dividend,w
  3358  0CDC                     u2435:
  3359  0CDC  1C03               	skipc
  3360  0CDD  2CDF               	goto	u2431
  3361  0CDE  2CE0               	goto	u2430
  3362  0CDF                     u2431:
  3363  0CDF  2CE7               	goto	l2594
  3364  0CE0                     u2430:
  3365  0CE0                     l2590:
  3366  0CE0  0873               	movf	___lwdiv@divisor,w
  3367  0CE1  02F5               	subwf	___lwdiv@dividend,f
  3368  0CE2  0874               	movf	___lwdiv@divisor+1,w
  3369  0CE3  1C03               	skipc
  3370  0CE4  03F6               	decf	___lwdiv@dividend+1,f
  3371  0CE5  02F6               	subwf	___lwdiv@dividend+1,f
  3372  0CE6                     l2592:
  3373  0CE6  1421               	bsf	___lwdiv@quotient,0
  3374  0CE7                     l2594:
  3375  0CE7  3001               	movlw	1
  3376  0CE8                     u2445:
  3377  0CE8  1003               	clrc
  3378  0CE9  0CF4               	rrf	___lwdiv@divisor+1,f
  3379  0CEA  0CF3               	rrf	___lwdiv@divisor,f
  3380  0CEB  3EFF               	addlw	-1
  3381  0CEC  1D03               	skipz
  3382  0CED  2CE8               	goto	u2445
  3383  0CEE                     l2596:
  3384  0CEE  3001               	movlw	1
  3385  0CEF  02A0               	subwf	___lwdiv@counter,f
  3386  0CF0  1D03               	btfss	3,2
  3387  0CF1  2CF3               	goto	u2451
  3388  0CF2  2CF4               	goto	u2450
  3389  0CF3                     u2451:
  3390  0CF3  2CCF               	goto	l2588
  3391  0CF4                     u2450:
  3392  0CF4                     l2598:
  3393  0CF4  0822               	movf	___lwdiv@quotient+1,w
  3394  0CF5  00F4               	movwf	?___lwdiv+1
  3395  0CF6  0821               	movf	___lwdiv@quotient,w
  3396  0CF7  00F3               	movwf	?___lwdiv
  3397  0CF8                     l566:
  3398  0CF8  0008               	return
  3399  0CF9                     __end_of___lwdiv:
  3400                           
  3401                           	psect	text9
  3402  076E                     __ptext9:	
  3403 ;; *************** function _division *****************
  3404 ;; Defined at:
  3405 ;;		line 203 in file "Lab02.c"
  3406 ;; Parameters:    Size  Location     Type
  3407 ;;  valor           1    wreg     unsigned char 
  3408 ;; Auto vars:     Size  Location     Type
  3409 ;;  valor           1    7[BANK0 ] unsigned char 
  3410 ;; Return value:  Size  Location     Type
  3411 ;;                  1    wreg      unsigned char 
  3412 ;; Registers used:
  3413 ;;		wreg, status,2, status,0, pclath, cstack
  3414 ;; Tracked objects:
  3415 ;;		On entry : 0/0
  3416 ;;		On exit  : 0/0
  3417 ;;		Unchanged: 0/0
  3418 ;; Data sizes:     COMMON   BANK0   BANK1   BANK3   BANK2
  3419 ;;      Params:         0       0       0       0       0
  3420 ;;      Locals:         0       1       0       0       0
  3421 ;;      Temps:          0       3       0       0       0
  3422 ;;      Totals:         0       4       0       0       0
  3423 ;;Total ram usage:        4 bytes
  3424 ;; Hardware stack levels used:    1
  3425 ;; Hardware stack levels required when called:    2
  3426 ;; This function calls:
  3427 ;;		___awdiv
  3428 ;;		___awmod
  3429 ;; This function is called by:
  3430 ;;		_main
  3431 ;;		_voltajes
  3432 ;; This function uses a non-reentrant model
  3433 ;;
  3434                           
  3435                           
  3436                           ;psect for function _division
  3437  076E                     _division:
  3438                           
  3439                           ;incstack = 0
  3440                           ; Regs used in _division: [wreg+status,2+status,0+pclath+cstack]
  3441                           ;division@valor stored from wreg
  3442  076E  1283               	bcf	3,5	;RP0=0, select bank0
  3443  076F  1303               	bcf	3,6	;RP1=0, select bank0
  3444  0770  00A7               	movwf	division@valor
  3445  0771                     l2806:
  3446                           
  3447                           ;Lab02.c: 204:     centenas = valor/100;
  3448  0771  3064               	movlw	100
  3449  0772  00F3               	movwf	___awdiv@divisor
  3450  0773  3000               	movlw	0
  3451  0774  00F4               	movwf	___awdiv@divisor+1
  3452  0775  0827               	movf	division@valor,w
  3453  0776  00A4               	movwf	??_division
  3454  0777  01A5               	clrf	??_division+1
  3455  0778  0824               	movf	??_division,w
  3456  0779  00F5               	movwf	___awdiv@dividend
  3457  077A  0825               	movf	??_division+1,w
  3458  077B  00F6               	movwf	___awdiv@dividend+1
  3459  077C  120A  158A  265F  120A  118A  	fcall	___awdiv
  3460  0781  0873               	movf	?___awdiv,w
  3461  0782  1283               	bcf	3,5	;RP0=0, select bank0
  3462  0783  1303               	bcf	3,6	;RP1=0, select bank0
  3463  0784  00A6               	movwf	??_division+2
  3464  0785  0826               	movf	??_division+2,w
  3465  0786  1683               	bsf	3,5	;RP0=1, select bank1
  3466  0787  1303               	bcf	3,6	;RP1=0, select bank1
  3467  0788  00CE               	movwf	_centenas^(0+128)
  3468                           
  3469                           ;Lab02.c: 205:     residuo = valor%100;
  3470  0789  3064               	movlw	100
  3471  078A  00F3               	movwf	___awmod@divisor
  3472  078B  3000               	movlw	0
  3473  078C  00F4               	movwf	___awmod@divisor+1
  3474  078D  1283               	bcf	3,5	;RP0=0, select bank0
  3475  078E  1303               	bcf	3,6	;RP1=0, select bank0
  3476  078F  0827               	movf	division@valor,w
  3477  0790  00A4               	movwf	??_division
  3478  0791  01A5               	clrf	??_division+1
  3479  0792  0824               	movf	??_division,w
  3480  0793  00F5               	movwf	___awmod@dividend
  3481  0794  0825               	movf	??_division+1,w
  3482  0795  00F6               	movwf	___awmod@dividend+1
  3483  0796  120A  158A  259F  120A  118A  	fcall	___awmod
  3484  079B  0873               	movf	?___awmod,w
  3485  079C  1283               	bcf	3,5	;RP0=0, select bank0
  3486  079D  1303               	bcf	3,6	;RP1=0, select bank0
  3487  079E  00A6               	movwf	??_division+2
  3488  079F  0826               	movf	??_division+2,w
  3489  07A0  00F8               	movwf	_residuo
  3490                           
  3491                           ;Lab02.c: 206:     decenas = residuo/10;
  3492  07A1  300A               	movlw	10
  3493  07A2  00F3               	movwf	___awdiv@divisor
  3494  07A3  3000               	movlw	0
  3495  07A4  00F4               	movwf	___awdiv@divisor+1
  3496  07A5  0878               	movf	_residuo,w
  3497  07A6  00A4               	movwf	??_division
  3498  07A7  01A5               	clrf	??_division+1
  3499  07A8  0824               	movf	??_division,w
  3500  07A9  00F5               	movwf	___awdiv@dividend
  3501  07AA  0825               	movf	??_division+1,w
  3502  07AB  00F6               	movwf	___awdiv@dividend+1
  3503  07AC  120A  158A  265F  120A  118A  	fcall	___awdiv
  3504  07B1  0873               	movf	?___awdiv,w
  3505  07B2  1283               	bcf	3,5	;RP0=0, select bank0
  3506  07B3  1303               	bcf	3,6	;RP1=0, select bank0
  3507  07B4  00A6               	movwf	??_division+2
  3508  07B5  0826               	movf	??_division+2,w
  3509  07B6  1683               	bsf	3,5	;RP0=1, select bank1
  3510  07B7  1303               	bcf	3,6	;RP1=0, select bank1
  3511  07B8  00CD               	movwf	_decenas^(0+128)
  3512                           
  3513                           ;Lab02.c: 207:     unidades = residuo%10;
  3514  07B9  300A               	movlw	10
  3515  07BA  00F3               	movwf	___awmod@divisor
  3516  07BB  3000               	movlw	0
  3517  07BC  00F4               	movwf	___awmod@divisor+1
  3518  07BD  0878               	movf	_residuo,w
  3519  07BE  1283               	bcf	3,5	;RP0=0, select bank0
  3520  07BF  1303               	bcf	3,6	;RP1=0, select bank0
  3521  07C0  00A4               	movwf	??_division
  3522  07C1  01A5               	clrf	??_division+1
  3523  07C2  0824               	movf	??_division,w
  3524  07C3  00F5               	movwf	___awmod@dividend
  3525  07C4  0825               	movf	??_division+1,w
  3526  07C5  00F6               	movwf	___awmod@dividend+1
  3527  07C6  120A  158A  259F  120A  118A  	fcall	___awmod
  3528  07CB  0873               	movf	?___awmod,w
  3529  07CC  1283               	bcf	3,5	;RP0=0, select bank0
  3530  07CD  1303               	bcf	3,6	;RP1=0, select bank0
  3531  07CE  00A6               	movwf	??_division+2
  3532  07CF  0826               	movf	??_division+2,w
  3533  07D0  1683               	bsf	3,5	;RP0=1, select bank1
  3534  07D1  1303               	bcf	3,6	;RP1=0, select bank1
  3535  07D2  00CC               	movwf	_unidades^(0+128)
  3536  07D3                     l2808:
  3537                           
  3538                           ;Lab02.c: 210:     centenas = centenas + 48;
  3539  07D3  084E               	movf	_centenas^(0+128),w
  3540  07D4  3E30               	addlw	48
  3541  07D5  1283               	bcf	3,5	;RP0=0, select bank0
  3542  07D6  1303               	bcf	3,6	;RP1=0, select bank0
  3543  07D7  00A4               	movwf	??_division
  3544  07D8  0824               	movf	??_division,w
  3545  07D9  1683               	bsf	3,5	;RP0=1, select bank1
  3546  07DA  1303               	bcf	3,6	;RP1=0, select bank1
  3547  07DB  00CE               	movwf	_centenas^(0+128)
  3548  07DC                     l2810:
  3549                           
  3550                           ;Lab02.c: 211:     decenas = decenas + 48;
  3551  07DC  084D               	movf	_decenas^(0+128),w
  3552  07DD  3E30               	addlw	48
  3553  07DE  1283               	bcf	3,5	;RP0=0, select bank0
  3554  07DF  1303               	bcf	3,6	;RP1=0, select bank0
  3555  07E0  00A4               	movwf	??_division
  3556  07E1  0824               	movf	??_division,w
  3557  07E2  1683               	bsf	3,5	;RP0=1, select bank1
  3558  07E3  1303               	bcf	3,6	;RP1=0, select bank1
  3559  07E4  00CD               	movwf	_decenas^(0+128)
  3560  07E5                     l2812:
  3561                           
  3562                           ;Lab02.c: 212:     unidades = unidades + 48;
  3563  07E5  084C               	movf	_unidades^(0+128),w
  3564  07E6  3E30               	addlw	48
  3565  07E7  1283               	bcf	3,5	;RP0=0, select bank0
  3566  07E8  1303               	bcf	3,6	;RP1=0, select bank0
  3567  07E9  00A4               	movwf	??_division
  3568  07EA  0824               	movf	??_division,w
  3569  07EB  1683               	bsf	3,5	;RP0=1, select bank1
  3570  07EC  1303               	bcf	3,6	;RP1=0, select bank1
  3571  07ED  00CC               	movwf	_unidades^(0+128)
  3572  07EE                     l131:
  3573  07EE  0008               	return
  3574  07EF                     __end_of_division:
  3575                           
  3576                           	psect	text10
  3577  0D9F                     __ptext10:	
  3578 ;; *************** function ___awmod *****************
  3579 ;; Defined at:
  3580 ;;		line 5 in file "C:\Program Files\Microchip\xc8\v2.31\pic\sources\c90\common\awmod.c"
  3581 ;; Parameters:    Size  Location     Type
  3582 ;;  divisor         2    3[COMMON] int 
  3583 ;;  dividend        2    5[COMMON] int 
  3584 ;; Auto vars:     Size  Location     Type
  3585 ;;  sign            1    1[BANK0 ] unsigned char 
  3586 ;;  counter         1    0[BANK0 ] unsigned char 
  3587 ;; Return value:  Size  Location     Type
  3588 ;;                  2    3[COMMON] int 
  3589 ;; Registers used:
  3590 ;;		wreg, status,2, status,0
  3591 ;; Tracked objects:
  3592 ;;		On entry : 0/0
  3593 ;;		On exit  : 0/0
  3594 ;;		Unchanged: 0/0
  3595 ;; Data sizes:     COMMON   BANK0   BANK1   BANK3   BANK2
  3596 ;;      Params:         4       0       0       0       0
  3597 ;;      Locals:         0       2       0       0       0
  3598 ;;      Temps:          1       0       0       0       0
  3599 ;;      Totals:         5       2       0       0       0
  3600 ;;Total ram usage:        7 bytes
  3601 ;; Hardware stack levels used:    1
  3602 ;; Hardware stack levels required when called:    1
  3603 ;; This function calls:
  3604 ;;		Nothing
  3605 ;; This function is called by:
  3606 ;;		_division
  3607 ;; This function uses a non-reentrant model
  3608 ;;
  3609                           
  3610                           
  3611                           ;psect for function ___awmod
  3612  0D9F                     ___awmod:
  3613  0D9F                     l2646:	
  3614                           ;incstack = 0
  3615                           ; Regs used in ___awmod: [wreg+status,2+status,0]
  3616                           
  3617  0D9F  1283               	bcf	3,5	;RP0=0, select bank0
  3618  0DA0  1303               	bcf	3,6	;RP1=0, select bank0
  3619  0DA1  01A1               	clrf	___awmod@sign
  3620  0DA2                     l2648:
  3621  0DA2  1FF6               	btfss	___awmod@dividend+1,7
  3622  0DA3  2DA5               	goto	u2561
  3623  0DA4  2DA6               	goto	u2560
  3624  0DA5                     u2561:
  3625  0DA5  2DAD               	goto	l2654
  3626  0DA6                     u2560:
  3627  0DA6                     l2650:
  3628  0DA6  09F5               	comf	___awmod@dividend,f
  3629  0DA7  09F6               	comf	___awmod@dividend+1,f
  3630  0DA8  0AF5               	incf	___awmod@dividend,f
  3631  0DA9  1903               	skipnz
  3632  0DAA  0AF6               	incf	___awmod@dividend+1,f
  3633  0DAB                     l2652:
  3634  0DAB  01A1               	clrf	___awmod@sign
  3635  0DAC  0AA1               	incf	___awmod@sign,f
  3636  0DAD                     l2654:
  3637  0DAD  1FF4               	btfss	___awmod@divisor+1,7
  3638  0DAE  2DB0               	goto	u2571
  3639  0DAF  2DB1               	goto	u2570
  3640  0DB0                     u2571:
  3641  0DB0  2DB6               	goto	l2658
  3642  0DB1                     u2570:
  3643  0DB1                     l2656:
  3644  0DB1  09F3               	comf	___awmod@divisor,f
  3645  0DB2  09F4               	comf	___awmod@divisor+1,f
  3646  0DB3  0AF3               	incf	___awmod@divisor,f
  3647  0DB4  1903               	skipnz
  3648  0DB5  0AF4               	incf	___awmod@divisor+1,f
  3649  0DB6                     l2658:
  3650  0DB6  0873               	movf	___awmod@divisor,w
  3651  0DB7  0474               	iorwf	___awmod@divisor+1,w
  3652  0DB8  1903               	btfsc	3,2
  3653  0DB9  2DBB               	goto	u2581
  3654  0DBA  2DBC               	goto	u2580
  3655  0DBB                     u2581:
  3656  0DBB  2DEB               	goto	l2676
  3657  0DBC                     u2580:
  3658  0DBC                     l2660:
  3659  0DBC  01A0               	clrf	___awmod@counter
  3660  0DBD  0AA0               	incf	___awmod@counter,f
  3661  0DBE  2DCA               	goto	l2666
  3662  0DBF                     l2662:
  3663  0DBF  3001               	movlw	1
  3664  0DC0                     u2595:
  3665  0DC0  1003               	clrc
  3666  0DC1  0DF3               	rlf	___awmod@divisor,f
  3667  0DC2  0DF4               	rlf	___awmod@divisor+1,f
  3668  0DC3  3EFF               	addlw	-1
  3669  0DC4  1D03               	skipz
  3670  0DC5  2DC0               	goto	u2595
  3671  0DC6                     l2664:
  3672  0DC6  3001               	movlw	1
  3673  0DC7  00F7               	movwf	??___awmod
  3674  0DC8  0877               	movf	??___awmod,w
  3675  0DC9  07A0               	addwf	___awmod@counter,f
  3676  0DCA                     l2666:
  3677  0DCA  1FF4               	btfss	___awmod@divisor+1,7
  3678  0DCB  2DCD               	goto	u2601
  3679  0DCC  2DCE               	goto	u2600
  3680  0DCD                     u2601:
  3681  0DCD  2DBF               	goto	l2662
  3682  0DCE                     u2600:
  3683  0DCE                     l2668:
  3684  0DCE  0874               	movf	___awmod@divisor+1,w
  3685  0DCF  0276               	subwf	___awmod@dividend+1,w
  3686  0DD0  1D03               	skipz
  3687  0DD1  2DD4               	goto	u2615
  3688  0DD2  0873               	movf	___awmod@divisor,w
  3689  0DD3  0275               	subwf	___awmod@dividend,w
  3690  0DD4                     u2615:
  3691  0DD4  1C03               	skipc
  3692  0DD5  2DD7               	goto	u2611
  3693  0DD6  2DD8               	goto	u2610
  3694  0DD7                     u2611:
  3695  0DD7  2DDE               	goto	l2672
  3696  0DD8                     u2610:
  3697  0DD8                     l2670:
  3698  0DD8  0873               	movf	___awmod@divisor,w
  3699  0DD9  02F5               	subwf	___awmod@dividend,f
  3700  0DDA  0874               	movf	___awmod@divisor+1,w
  3701  0DDB  1C03               	skipc
  3702  0DDC  03F6               	decf	___awmod@dividend+1,f
  3703  0DDD  02F6               	subwf	___awmod@dividend+1,f
  3704  0DDE                     l2672:
  3705  0DDE  3001               	movlw	1
  3706  0DDF                     u2625:
  3707  0DDF  1003               	clrc
  3708  0DE0  0CF4               	rrf	___awmod@divisor+1,f
  3709  0DE1  0CF3               	rrf	___awmod@divisor,f
  3710  0DE2  3EFF               	addlw	-1
  3711  0DE3  1D03               	skipz
  3712  0DE4  2DDF               	goto	u2625
  3713  0DE5                     l2674:
  3714  0DE5  3001               	movlw	1
  3715  0DE6  02A0               	subwf	___awmod@counter,f
  3716  0DE7  1D03               	btfss	3,2
  3717  0DE8  2DEA               	goto	u2631
  3718  0DE9  2DEB               	goto	u2630
  3719  0DEA                     u2631:
  3720  0DEA  2DCE               	goto	l2668
  3721  0DEB                     u2630:
  3722  0DEB                     l2676:
  3723  0DEB  0821               	movf	___awmod@sign,w
  3724  0DEC  1903               	btfsc	3,2
  3725  0DED  2DEF               	goto	u2641
  3726  0DEE  2DF0               	goto	u2640
  3727  0DEF                     u2641:
  3728  0DEF  2DF5               	goto	l2680
  3729  0DF0                     u2640:
  3730  0DF0                     l2678:
  3731  0DF0  09F5               	comf	___awmod@dividend,f
  3732  0DF1  09F6               	comf	___awmod@dividend+1,f
  3733  0DF2  0AF5               	incf	___awmod@dividend,f
  3734  0DF3  1903               	skipnz
  3735  0DF4  0AF6               	incf	___awmod@dividend+1,f
  3736  0DF5                     l2680:
  3737  0DF5  0876               	movf	___awmod@dividend+1,w
  3738  0DF6  00F4               	movwf	?___awmod+1
  3739  0DF7  0875               	movf	___awmod@dividend,w
  3740  0DF8  00F3               	movwf	?___awmod
  3741  0DF9                     l460:
  3742  0DF9  0008               	return
  3743  0DFA                     __end_of___awmod:
  3744                           
  3745                           	psect	text11
  3746  0E5F                     __ptext11:	
  3747 ;; *************** function ___awdiv *****************
  3748 ;; Defined at:
  3749 ;;		line 5 in file "C:\Program Files\Microchip\xc8\v2.31\pic\sources\c90\common\awdiv.c"
  3750 ;; Parameters:    Size  Location     Type
  3751 ;;  divisor         2    3[COMMON] int 
  3752 ;;  dividend        2    5[COMMON] int 
  3753 ;; Auto vars:     Size  Location     Type
  3754 ;;  quotient        2    2[BANK0 ] int 
  3755 ;;  sign            1    1[BANK0 ] unsigned char 
  3756 ;;  counter         1    0[BANK0 ] unsigned char 
  3757 ;; Return value:  Size  Location     Type
  3758 ;;                  2    3[COMMON] int 
  3759 ;; Registers used:
  3760 ;;		wreg, status,2, status,0
  3761 ;; Tracked objects:
  3762 ;;		On entry : 0/0
  3763 ;;		On exit  : 0/0
  3764 ;;		Unchanged: 0/0
  3765 ;; Data sizes:     COMMON   BANK0   BANK1   BANK3   BANK2
  3766 ;;      Params:         4       0       0       0       0
  3767 ;;      Locals:         0       4       0       0       0
  3768 ;;      Temps:          1       0       0       0       0
  3769 ;;      Totals:         5       4       0       0       0
  3770 ;;Total ram usage:        9 bytes
  3771 ;; Hardware stack levels used:    1
  3772 ;; Hardware stack levels required when called:    1
  3773 ;; This function calls:
  3774 ;;		Nothing
  3775 ;; This function is called by:
  3776 ;;		_division
  3777 ;; This function uses a non-reentrant model
  3778 ;;
  3779                           
  3780                           
  3781                           ;psect for function ___awdiv
  3782  0E5F                     ___awdiv:
  3783  0E5F                     l2602:	
  3784                           ;incstack = 0
  3785                           ; Regs used in ___awdiv: [wreg+status,2+status,0]
  3786                           
  3787  0E5F  1283               	bcf	3,5	;RP0=0, select bank0
  3788  0E60  1303               	bcf	3,6	;RP1=0, select bank0
  3789  0E61  01A1               	clrf	___awdiv@sign
  3790  0E62                     l2604:
  3791  0E62  1FF4               	btfss	___awdiv@divisor+1,7
  3792  0E63  2E65               	goto	u2461
  3793  0E64  2E66               	goto	u2460
  3794  0E65                     u2461:
  3795  0E65  2E6D               	goto	l2610
  3796  0E66                     u2460:
  3797  0E66                     l2606:
  3798  0E66  09F3               	comf	___awdiv@divisor,f
  3799  0E67  09F4               	comf	___awdiv@divisor+1,f
  3800  0E68  0AF3               	incf	___awdiv@divisor,f
  3801  0E69  1903               	skipnz
  3802  0E6A  0AF4               	incf	___awdiv@divisor+1,f
  3803  0E6B                     l2608:
  3804  0E6B  01A1               	clrf	___awdiv@sign
  3805  0E6C  0AA1               	incf	___awdiv@sign,f
  3806  0E6D                     l2610:
  3807  0E6D  1FF6               	btfss	___awdiv@dividend+1,7
  3808  0E6E  2E70               	goto	u2471
  3809  0E6F  2E71               	goto	u2470
  3810  0E70                     u2471:
  3811  0E70  2E7A               	goto	l2616
  3812  0E71                     u2470:
  3813  0E71                     l2612:
  3814  0E71  09F5               	comf	___awdiv@dividend,f
  3815  0E72  09F6               	comf	___awdiv@dividend+1,f
  3816  0E73  0AF5               	incf	___awdiv@dividend,f
  3817  0E74  1903               	skipnz
  3818  0E75  0AF6               	incf	___awdiv@dividend+1,f
  3819  0E76                     l2614:
  3820  0E76  3001               	movlw	1
  3821  0E77  00F7               	movwf	??___awdiv
  3822  0E78  0877               	movf	??___awdiv,w
  3823  0E79  06A1               	xorwf	___awdiv@sign,f
  3824  0E7A                     l2616:
  3825  0E7A  01A2               	clrf	___awdiv@quotient
  3826  0E7B  01A3               	clrf	___awdiv@quotient+1
  3827  0E7C                     l2618:
  3828  0E7C  0873               	movf	___awdiv@divisor,w
  3829  0E7D  0474               	iorwf	___awdiv@divisor+1,w
  3830  0E7E  1903               	btfsc	3,2
  3831  0E7F  2E81               	goto	u2481
  3832  0E80  2E82               	goto	u2480
  3833  0E81                     u2481:
  3834  0E81  2EB9               	goto	l2638
  3835  0E82                     u2480:
  3836  0E82                     l2620:
  3837  0E82  01A0               	clrf	___awdiv@counter
  3838  0E83  0AA0               	incf	___awdiv@counter,f
  3839  0E84  2E90               	goto	l2626
  3840  0E85                     l2622:
  3841  0E85  3001               	movlw	1
  3842  0E86                     u2495:
  3843  0E86  1003               	clrc
  3844  0E87  0DF3               	rlf	___awdiv@divisor,f
  3845  0E88  0DF4               	rlf	___awdiv@divisor+1,f
  3846  0E89  3EFF               	addlw	-1
  3847  0E8A  1D03               	skipz
  3848  0E8B  2E86               	goto	u2495
  3849  0E8C                     l2624:
  3850  0E8C  3001               	movlw	1
  3851  0E8D  00F7               	movwf	??___awdiv
  3852  0E8E  0877               	movf	??___awdiv,w
  3853  0E8F  07A0               	addwf	___awdiv@counter,f
  3854  0E90                     l2626:
  3855  0E90  1FF4               	btfss	___awdiv@divisor+1,7
  3856  0E91  2E93               	goto	u2501
  3857  0E92  2E94               	goto	u2500
  3858  0E93                     u2501:
  3859  0E93  2E85               	goto	l2622
  3860  0E94                     u2500:
  3861  0E94                     l2628:
  3862  0E94  3001               	movlw	1
  3863  0E95                     u2515:
  3864  0E95  1003               	clrc
  3865  0E96  0DA2               	rlf	___awdiv@quotient,f
  3866  0E97  0DA3               	rlf	___awdiv@quotient+1,f
  3867  0E98  3EFF               	addlw	-1
  3868  0E99  1D03               	skipz
  3869  0E9A  2E95               	goto	u2515
  3870  0E9B  0874               	movf	___awdiv@divisor+1,w
  3871  0E9C  0276               	subwf	___awdiv@dividend+1,w
  3872  0E9D  1D03               	skipz
  3873  0E9E  2EA1               	goto	u2525
  3874  0E9F  0873               	movf	___awdiv@divisor,w
  3875  0EA0  0275               	subwf	___awdiv@dividend,w
  3876  0EA1                     u2525:
  3877  0EA1  1C03               	skipc
  3878  0EA2  2EA4               	goto	u2521
  3879  0EA3  2EA5               	goto	u2520
  3880  0EA4                     u2521:
  3881  0EA4  2EAC               	goto	l2634
  3882  0EA5                     u2520:
  3883  0EA5                     l2630:
  3884  0EA5  0873               	movf	___awdiv@divisor,w
  3885  0EA6  02F5               	subwf	___awdiv@dividend,f
  3886  0EA7  0874               	movf	___awdiv@divisor+1,w
  3887  0EA8  1C03               	skipc
  3888  0EA9  03F6               	decf	___awdiv@dividend+1,f
  3889  0EAA  02F6               	subwf	___awdiv@dividend+1,f
  3890  0EAB                     l2632:
  3891  0EAB  1422               	bsf	___awdiv@quotient,0
  3892  0EAC                     l2634:
  3893  0EAC  3001               	movlw	1
  3894  0EAD                     u2535:
  3895  0EAD  1003               	clrc
  3896  0EAE  0CF4               	rrf	___awdiv@divisor+1,f
  3897  0EAF  0CF3               	rrf	___awdiv@divisor,f
  3898  0EB0  3EFF               	addlw	-1
  3899  0EB1  1D03               	skipz
  3900  0EB2  2EAD               	goto	u2535
  3901  0EB3                     l2636:
  3902  0EB3  3001               	movlw	1
  3903  0EB4  02A0               	subwf	___awdiv@counter,f
  3904  0EB5  1D03               	btfss	3,2
  3905  0EB6  2EB8               	goto	u2541
  3906  0EB7  2EB9               	goto	u2540
  3907  0EB8                     u2541:
  3908  0EB8  2E94               	goto	l2628
  3909  0EB9                     u2540:
  3910  0EB9                     l2638:
  3911  0EB9  0821               	movf	___awdiv@sign,w
  3912  0EBA  1903               	btfsc	3,2
  3913  0EBB  2EBD               	goto	u2551
  3914  0EBC  2EBE               	goto	u2550
  3915  0EBD                     u2551:
  3916  0EBD  2EC3               	goto	l2642
  3917  0EBE                     u2550:
  3918  0EBE                     l2640:
  3919  0EBE  09A2               	comf	___awdiv@quotient,f
  3920  0EBF  09A3               	comf	___awdiv@quotient+1,f
  3921  0EC0  0AA2               	incf	___awdiv@quotient,f
  3922  0EC1  1903               	skipnz
  3923  0EC2  0AA3               	incf	___awdiv@quotient+1,f
  3924  0EC3                     l2642:
  3925  0EC3  0823               	movf	___awdiv@quotient+1,w
  3926  0EC4  00F4               	movwf	?___awdiv+1
  3927  0EC5  0822               	movf	___awdiv@quotient,w
  3928  0EC6  00F3               	movwf	?___awdiv
  3929  0EC7                     l447:
  3930  0EC7  0008               	return
  3931  0EC8                     __end_of___awdiv:
  3932                           
  3933                           	psect	text12
  3934  0F44                     __ptext12:	
  3935 ;; *************** function ___xxtofl *****************
  3936 ;; Defined at:
  3937 ;;		line 10 in file "C:\Program Files\Microchip\xc8\v2.31\pic\sources\c90\common\xxtofl.c"
  3938 ;; Parameters:    Size  Location     Type
  3939 ;;  sign            1    wreg     unsigned char 
  3940 ;;  val             4    3[COMMON] long 
  3941 ;; Auto vars:     Size  Location     Type
  3942 ;;  sign            1    4[BANK0 ] unsigned char 
  3943 ;;  arg             4    6[BANK0 ] unsigned long 
  3944 ;;  exp             1    5[BANK0 ] unsigned char 
  3945 ;; Return value:  Size  Location     Type
  3946 ;;                  4    3[COMMON] unsigned char 
  3947 ;; Registers used:
  3948 ;;		wreg, status,2, status,0
  3949 ;; Tracked objects:
  3950 ;;		On entry : 0/0
  3951 ;;		On exit  : 0/0
  3952 ;;		Unchanged: 0/0
  3953 ;; Data sizes:     COMMON   BANK0   BANK1   BANK3   BANK2
  3954 ;;      Params:         4       0       0       0       0
  3955 ;;      Locals:         0       6       0       0       0
  3956 ;;      Temps:          0       4       0       0       0
  3957 ;;      Totals:         4      10       0       0       0
  3958 ;;Total ram usage:       14 bytes
  3959 ;; Hardware stack levels used:    1
  3960 ;; Hardware stack levels required when called:    1
  3961 ;; This function calls:
  3962 ;;		Nothing
  3963 ;; This function is called by:
  3964 ;;		_main
  3965 ;; This function uses a non-reentrant model
  3966 ;;
  3967                           
  3968                           
  3969                           ;psect for function ___xxtofl
  3970  0F44                     ___xxtofl:
  3971                           
  3972                           ;incstack = 0
  3973                           ; Regs used in ___xxtofl: [wreg+status,2+status,0]
  3974                           ;___xxtofl@sign stored from wreg
  3975  0F44  1283               	bcf	3,5	;RP0=0, select bank0
  3976  0F45  1303               	bcf	3,6	;RP1=0, select bank0
  3977  0F46  00A4               	movwf	___xxtofl@sign
  3978  0F47                     l2824:
  3979  0F47  0824               	movf	___xxtofl@sign,w
  3980  0F48  1903               	btfsc	3,2
  3981  0F49  2F4B               	goto	u2801
  3982  0F4A  2F4C               	goto	u2800
  3983  0F4B                     u2801:
  3984  0F4B  2F60               	goto	l2830
  3985  0F4C                     u2800:
  3986  0F4C                     l2826:
  3987  0F4C  1FF6               	btfss	___xxtofl@val+3,7
  3988  0F4D  2F4F               	goto	u2811
  3989  0F4E  2F50               	goto	u2810
  3990  0F4F                     u2811:
  3991  0F4F  2F60               	goto	l2830
  3992  0F50                     u2810:
  3993  0F50                     l2828:
  3994  0F50  0973               	comf	___xxtofl@val,w
  3995  0F51  00A6               	movwf	___xxtofl@arg
  3996  0F52  0974               	comf	___xxtofl@val+1,w
  3997  0F53  00A7               	movwf	___xxtofl@arg+1
  3998  0F54  0975               	comf	___xxtofl@val+2,w
  3999  0F55  00A8               	movwf	___xxtofl@arg+2
  4000  0F56  0976               	comf	___xxtofl@val+3,w
  4001  0F57  00A9               	movwf	___xxtofl@arg+3
  4002  0F58  0AA6               	incf	___xxtofl@arg,f
  4003  0F59  1903               	skipnz
  4004  0F5A  0AA7               	incf	___xxtofl@arg+1,f
  4005  0F5B  1903               	skipnz
  4006  0F5C  0AA8               	incf	___xxtofl@arg+2,f
  4007  0F5D  1903               	skipnz
  4008  0F5E  0AA9               	incf	___xxtofl@arg+3,f
  4009  0F5F  2F68               	goto	l727
  4010  0F60                     l2830:
  4011  0F60  0876               	movf	___xxtofl@val+3,w
  4012  0F61  00A9               	movwf	___xxtofl@arg+3
  4013  0F62  0875               	movf	___xxtofl@val+2,w
  4014  0F63  00A8               	movwf	___xxtofl@arg+2
  4015  0F64  0874               	movf	___xxtofl@val+1,w
  4016  0F65  00A7               	movwf	___xxtofl@arg+1
  4017  0F66  0873               	movf	___xxtofl@val,w
  4018  0F67  00A6               	movwf	___xxtofl@arg
  4019  0F68                     l727:
  4020  0F68  0876               	movf	___xxtofl@val+3,w
  4021  0F69  0475               	iorwf	___xxtofl@val+2,w
  4022  0F6A  0474               	iorwf	___xxtofl@val+1,w
  4023  0F6B  0473               	iorwf	___xxtofl@val,w
  4024  0F6C  1D03               	skipz
  4025  0F6D  2F6F               	goto	u2821
  4026  0F6E  2F70               	goto	u2820
  4027  0F6F                     u2821:
  4028  0F6F  2F79               	goto	l2836
  4029  0F70                     u2820:
  4030  0F70                     l2832:
  4031  0F70  3000               	movlw	0
  4032  0F71  00F6               	movwf	?___xxtofl+3
  4033  0F72  3000               	movlw	0
  4034  0F73  00F5               	movwf	?___xxtofl+2
  4035  0F74  3000               	movlw	0
  4036  0F75  00F4               	movwf	?___xxtofl+1
  4037  0F76  3000               	movlw	0
  4038  0F77  00F3               	movwf	?___xxtofl
  4039  0F78  2FFF               	goto	l729
  4040  0F79                     l2836:
  4041  0F79  3096               	movlw	150
  4042  0F7A  00A0               	movwf	??___xxtofl
  4043  0F7B  0820               	movf	??___xxtofl,w
  4044  0F7C  00A5               	movwf	___xxtofl@exp
  4045  0F7D  2F8B               	goto	l2840
  4046  0F7E                     l2838:
  4047  0F7E  3001               	movlw	1
  4048  0F7F  00A0               	movwf	??___xxtofl
  4049  0F80  0820               	movf	??___xxtofl,w
  4050  0F81  07A5               	addwf	___xxtofl@exp,f
  4051  0F82  3001               	movlw	1
  4052  0F83                     u2835:
  4053  0F83  1003               	clrc
  4054  0F84  0CA9               	rrf	___xxtofl@arg+3,f
  4055  0F85  0CA8               	rrf	___xxtofl@arg+2,f
  4056  0F86  0CA7               	rrf	___xxtofl@arg+1,f
  4057  0F87  0CA6               	rrf	___xxtofl@arg,f
  4058  0F88  3EFF               	addlw	-1
  4059  0F89  1D03               	skipz
  4060  0F8A  2F83               	goto	u2835
  4061  0F8B                     l2840:
  4062  0F8B  30FE               	movlw	254
  4063  0F8C  0529               	andwf	___xxtofl@arg+3,w
  4064  0F8D  1D03               	btfss	3,2
  4065  0F8E  2F90               	goto	u2841
  4066  0F8F  2F91               	goto	u2840
  4067  0F90                     u2841:
  4068  0F90  2F7E               	goto	l2838
  4069  0F91                     u2840:
  4070  0F91  2FAD               	goto	l733
  4071  0F92                     l2842:
  4072  0F92  3001               	movlw	1
  4073  0F93  00A0               	movwf	??___xxtofl
  4074  0F94  0820               	movf	??___xxtofl,w
  4075  0F95  07A5               	addwf	___xxtofl@exp,f
  4076  0F96                     l2844:
  4077  0F96  3001               	movlw	1
  4078  0F97  07A6               	addwf	___xxtofl@arg,f
  4079  0F98  3000               	movlw	0
  4080  0F99  1803               	skipnc
  4081  0F9A  3001               	movlw	1
  4082  0F9B  07A7               	addwf	___xxtofl@arg+1,f
  4083  0F9C  3000               	movlw	0
  4084  0F9D  1803               	skipnc
  4085  0F9E  3001               	movlw	1
  4086  0F9F  07A8               	addwf	___xxtofl@arg+2,f
  4087  0FA0  3000               	movlw	0
  4088  0FA1  1803               	skipnc
  4089  0FA2  3001               	movlw	1
  4090  0FA3  07A9               	addwf	___xxtofl@arg+3,f
  4091  0FA4                     l2846:
  4092  0FA4  3001               	movlw	1
  4093  0FA5                     u2855:
  4094  0FA5  1003               	clrc
  4095  0FA6  0CA9               	rrf	___xxtofl@arg+3,f
  4096  0FA7  0CA8               	rrf	___xxtofl@arg+2,f
  4097  0FA8  0CA7               	rrf	___xxtofl@arg+1,f
  4098  0FA9  0CA6               	rrf	___xxtofl@arg,f
  4099  0FAA  3EFF               	addlw	-1
  4100  0FAB  1D03               	skipz
  4101  0FAC  2FA5               	goto	u2855
  4102  0FAD                     l733:
  4103  0FAD  30FF               	movlw	255
  4104  0FAE  0529               	andwf	___xxtofl@arg+3,w
  4105  0FAF  1D03               	btfss	3,2
  4106  0FB0  2FB2               	goto	u2861
  4107  0FB1  2FB3               	goto	u2860
  4108  0FB2                     u2861:
  4109  0FB2  2F92               	goto	l2842
  4110  0FB3                     u2860:
  4111  0FB3  2FBF               	goto	l2850
  4112  0FB4                     l2848:
  4113  0FB4  3001               	movlw	1
  4114  0FB5  02A5               	subwf	___xxtofl@exp,f
  4115  0FB6  3001               	movlw	1
  4116  0FB7  00A0               	movwf	??___xxtofl
  4117  0FB8                     u2875:
  4118  0FB8  1003               	clrc
  4119  0FB9  0DA6               	rlf	___xxtofl@arg,f
  4120  0FBA  0DA7               	rlf	___xxtofl@arg+1,f
  4121  0FBB  0DA8               	rlf	___xxtofl@arg+2,f
  4122  0FBC  0DA9               	rlf	___xxtofl@arg+3,f
  4123  0FBD  0BA0               	decfsz	??___xxtofl,f
  4124  0FBE  2FB8               	goto	u2875
  4125  0FBF                     l2850:
  4126  0FBF  1BA8               	btfsc	___xxtofl@arg+2,7
  4127  0FC0  2FC2               	goto	u2881
  4128  0FC1  2FC3               	goto	u2880
  4129  0FC2                     u2881:
  4130  0FC2  2FC9               	goto	l740
  4131  0FC3                     u2880:
  4132  0FC3                     l2852:
  4133  0FC3  3002               	movlw	2
  4134  0FC4  0225               	subwf	___xxtofl@exp,w
  4135  0FC5  1803               	skipnc
  4136  0FC6  2FC8               	goto	u2891
  4137  0FC7  2FC9               	goto	u2890
  4138  0FC8                     u2891:
  4139  0FC8  2FB4               	goto	l2848
  4140  0FC9                     u2890:
  4141  0FC9                     l740:
  4142  0FC9  1825               	btfsc	___xxtofl@exp,0
  4143  0FCA  2FCC               	goto	u2901
  4144  0FCB  2FCD               	goto	u2900
  4145  0FCC                     u2901:
  4146  0FCC  2FD5               	goto	l741
  4147  0FCD                     u2900:
  4148  0FCD                     l2854:
  4149  0FCD  30FF               	movlw	255
  4150  0FCE  05A6               	andwf	___xxtofl@arg,f
  4151  0FCF  30FF               	movlw	255
  4152  0FD0  05A7               	andwf	___xxtofl@arg+1,f
  4153  0FD1  307F               	movlw	127
  4154  0FD2  05A8               	andwf	___xxtofl@arg+2,f
  4155  0FD3  30FF               	movlw	255
  4156  0FD4  05A9               	andwf	___xxtofl@arg+3,f
  4157  0FD5                     l741:
  4158  0FD5  1003               	clrc
  4159  0FD6  0CA5               	rrf	___xxtofl@exp,f
  4160  0FD7                     l2856:
  4161  0FD7  0825               	movf	___xxtofl@exp,w
  4162  0FD8  00A0               	movwf	??___xxtofl
  4163  0FD9  01A1               	clrf	??___xxtofl+1
  4164  0FDA  01A2               	clrf	??___xxtofl+2
  4165  0FDB  01A3               	clrf	??___xxtofl+3
  4166  0FDC  3018               	movlw	24
  4167  0FDD                     u2915:
  4168  0FDD  1003               	clrc
  4169  0FDE  0DA0               	rlf	??___xxtofl,f
  4170  0FDF  0DA1               	rlf	??___xxtofl+1,f
  4171  0FE0  0DA2               	rlf	??___xxtofl+2,f
  4172  0FE1  0DA3               	rlf	??___xxtofl+3,f
  4173  0FE2                     u2910:
  4174  0FE2  3EFF               	addlw	-1
  4175  0FE3  1D03               	skipz
  4176  0FE4  2FDD               	goto	u2915
  4177  0FE5  0820               	movf	??___xxtofl,w
  4178  0FE6  04A6               	iorwf	___xxtofl@arg,f
  4179  0FE7  0821               	movf	??___xxtofl+1,w
  4180  0FE8  04A7               	iorwf	___xxtofl@arg+1,f
  4181  0FE9  0822               	movf	??___xxtofl+2,w
  4182  0FEA  04A8               	iorwf	___xxtofl@arg+2,f
  4183  0FEB  0823               	movf	??___xxtofl+3,w
  4184  0FEC  04A9               	iorwf	___xxtofl@arg+3,f
  4185  0FED                     l2858:
  4186  0FED  0824               	movf	___xxtofl@sign,w
  4187  0FEE  1903               	btfsc	3,2
  4188  0FEF  2FF1               	goto	u2921
  4189  0FF0  2FF2               	goto	u2920
  4190  0FF1                     u2921:
  4191  0FF1  2FF7               	goto	l2864
  4192  0FF2                     u2920:
  4193  0FF2                     l2860:
  4194  0FF2  1FF6               	btfss	___xxtofl@val+3,7
  4195  0FF3  2FF5               	goto	u2931
  4196  0FF4  2FF6               	goto	u2930
  4197  0FF5                     u2931:
  4198  0FF5  2FF7               	goto	l2864
  4199  0FF6                     u2930:
  4200  0FF6                     l2862:
  4201  0FF6  17A9               	bsf	___xxtofl@arg+3,7
  4202  0FF7                     l2864:
  4203  0FF7  0829               	movf	___xxtofl@arg+3,w
  4204  0FF8  00F6               	movwf	?___xxtofl+3
  4205  0FF9  0828               	movf	___xxtofl@arg+2,w
  4206  0FFA  00F5               	movwf	?___xxtofl+2
  4207  0FFB  0827               	movf	___xxtofl@arg+1,w
  4208  0FFC  00F4               	movwf	?___xxtofl+1
  4209  0FFD  0826               	movf	___xxtofl@arg,w
  4210  0FFE  00F3               	movwf	?___xxtofl
  4211  0FFF                     l729:
  4212  0FFF  0008               	return
  4213  1000                     __end_of___xxtofl:
  4214                           
  4215                           	psect	text13
  4216  0EC8                     __ptext13:	
  4217 ;; *************** function ___fltol *****************
  4218 ;; Defined at:
  4219 ;;		line 43 in file "C:\Program Files\Microchip\xc8\v2.31\pic\sources\c90\common\fltol.c"
  4220 ;; Parameters:    Size  Location     Type
  4221 ;;  f1              4   36[BANK0 ] unsigned char 
  4222 ;; Auto vars:     Size  Location     Type
  4223 ;;  exp1            1   46[BANK0 ] unsigned char 
  4224 ;;  sign1           1   45[BANK0 ] unsigned char 
  4225 ;; Return value:  Size  Location     Type
  4226 ;;                  4   36[BANK0 ] long 
  4227 ;; Registers used:
  4228 ;;		wreg, status,2, status,0
  4229 ;; Tracked objects:
  4230 ;;		On entry : 0/0
  4231 ;;		On exit  : 0/0
  4232 ;;		Unchanged: 0/0
  4233 ;; Data sizes:     COMMON   BANK0   BANK1   BANK3   BANK2
  4234 ;;      Params:         0       4       0       0       0
  4235 ;;      Locals:         0       2       0       0       0
  4236 ;;      Temps:          0       5       0       0       0
  4237 ;;      Totals:         0      11       0       0       0
  4238 ;;Total ram usage:       11 bytes
  4239 ;; Hardware stack levels used:    1
  4240 ;; Hardware stack levels required when called:    1
  4241 ;; This function calls:
  4242 ;;		Nothing
  4243 ;; This function is called by:
  4244 ;;		_main
  4245 ;; This function uses a non-reentrant model
  4246 ;;
  4247                           
  4248                           
  4249                           ;psect for function ___fltol
  4250  0EC8                     ___fltol:
  4251  0EC8                     l2186:	
  4252                           ;incstack = 0
  4253                           ; Regs used in ___fltol: [wreg+status,2+status,0]
  4254                           
  4255  0EC8  1003               	clrc
  4256  0EC9  1283               	bcf	3,5	;RP0=0, select bank0
  4257  0ECA  1303               	bcf	3,6	;RP1=0, select bank0
  4258  0ECB  0D46               	rlf	___fltol@f1+2,w
  4259  0ECC  0D47               	rlf	___fltol@f1+3,w
  4260  0ECD  00C8               	movwf	??___fltol
  4261  0ECE  0848               	movf	??___fltol,w
  4262  0ECF  00CE               	movwf	___fltol@exp1
  4263  0ED0  084E               	movf	___fltol@exp1,w
  4264  0ED1  1D03               	btfss	3,2
  4265  0ED2  2ED4               	goto	u1711
  4266  0ED3  2ED5               	goto	u1710
  4267  0ED4                     u1711:
  4268  0ED4  2EDE               	goto	l2192
  4269  0ED5                     u1710:
  4270  0ED5                     l2188:
  4271  0ED5  3000               	movlw	0
  4272  0ED6  00C7               	movwf	?___fltol+3
  4273  0ED7  3000               	movlw	0
  4274  0ED8  00C6               	movwf	?___fltol+2
  4275  0ED9  3000               	movlw	0
  4276  0EDA  00C5               	movwf	?___fltol+1
  4277  0EDB  3000               	movlw	0
  4278  0EDC  00C4               	movwf	?___fltol
  4279  0EDD  2F43               	goto	l480
  4280  0EDE                     l2192:
  4281  0EDE  0844               	movf	___fltol@f1,w
  4282  0EDF  00C8               	movwf	??___fltol
  4283  0EE0  0845               	movf	___fltol@f1+1,w
  4284  0EE1  00C9               	movwf	??___fltol+1
  4285  0EE2  0846               	movf	___fltol@f1+2,w
  4286  0EE3  00CA               	movwf	??___fltol+2
  4287  0EE4  0847               	movf	___fltol@f1+3,w
  4288  0EE5  00CB               	movwf	??___fltol+3
  4289  0EE6  301F               	movlw	31
  4290  0EE7                     u1725:
  4291  0EE7  1003               	clrc
  4292  0EE8  0CCB               	rrf	??___fltol+3,f
  4293  0EE9  0CCA               	rrf	??___fltol+2,f
  4294  0EEA  0CC9               	rrf	??___fltol+1,f
  4295  0EEB  0CC8               	rrf	??___fltol,f
  4296  0EEC                     u1720:
  4297  0EEC  3EFF               	addlw	-1
  4298  0EED  1D03               	skipz
  4299  0EEE  2EE7               	goto	u1725
  4300  0EEF  0848               	movf	??___fltol,w
  4301  0EF0  00CC               	movwf	??___fltol+4
  4302  0EF1  084C               	movf	??___fltol+4,w
  4303  0EF2  00CD               	movwf	___fltol@sign1
  4304  0EF3                     l2194:
  4305  0EF3  17C6               	bsf	___fltol@f1+2,7
  4306  0EF4                     l2196:
  4307  0EF4  30FF               	movlw	255
  4308  0EF5  05C4               	andwf	___fltol@f1,f
  4309  0EF6  30FF               	movlw	255
  4310  0EF7  05C5               	andwf	___fltol@f1+1,f
  4311  0EF8  30FF               	movlw	255
  4312  0EF9  05C6               	andwf	___fltol@f1+2,f
  4313  0EFA  3000               	movlw	0
  4314  0EFB  05C7               	andwf	___fltol@f1+3,f
  4315  0EFC                     l2198:
  4316  0EFC  3096               	movlw	150
  4317  0EFD  02CE               	subwf	___fltol@exp1,f
  4318  0EFE                     l2200:
  4319  0EFE  1FCE               	btfss	___fltol@exp1,7
  4320  0EFF  2F01               	goto	u1731
  4321  0F00  2F02               	goto	u1730
  4322  0F01                     u1731:
  4323  0F01  2F1C               	goto	l2210
  4324  0F02                     u1730:
  4325  0F02                     l2202:
  4326  0F02  084E               	movf	___fltol@exp1,w
  4327  0F03  3A80               	xorlw	128
  4328  0F04  3E97               	addlw	151
  4329  0F05  1803               	skipnc
  4330  0F06  2F08               	goto	u1741
  4331  0F07  2F09               	goto	u1740
  4332  0F08                     u1741:
  4333  0F08  2F0A               	goto	l2208
  4334  0F09                     u1740:
  4335  0F09  2ED5               	goto	l2188
  4336  0F0A                     l2208:
  4337  0F0A  3001               	movlw	1
  4338  0F0B                     u1755:
  4339  0F0B  1003               	clrc
  4340  0F0C  0CC7               	rrf	___fltol@f1+3,f
  4341  0F0D  0CC6               	rrf	___fltol@f1+2,f
  4342  0F0E  0CC5               	rrf	___fltol@f1+1,f
  4343  0F0F  0CC4               	rrf	___fltol@f1,f
  4344  0F10  3EFF               	addlw	-1
  4345  0F11  1D03               	skipz
  4346  0F12  2F0B               	goto	u1755
  4347  0F13  3001               	movlw	1
  4348  0F14  00C8               	movwf	??___fltol
  4349  0F15  0848               	movf	??___fltol,w
  4350  0F16  07CE               	addwf	___fltol@exp1,f
  4351  0F17  1D03               	btfss	3,2
  4352  0F18  2F1A               	goto	u1761
  4353  0F19  2F1B               	goto	u1760
  4354  0F1A                     u1761:
  4355  0F1A  2F0A               	goto	l2208
  4356  0F1B                     u1760:
  4357  0F1B  2F33               	goto	l2218
  4358  0F1C                     l2210:
  4359  0F1C  3020               	movlw	32
  4360  0F1D  024E               	subwf	___fltol@exp1,w
  4361  0F1E  1C03               	skipc
  4362  0F1F  2F21               	goto	u1771
  4363  0F20  2F22               	goto	u1770
  4364  0F21                     u1771:
  4365  0F21  2F2E               	goto	l487
  4366  0F22                     u1770:
  4367  0F22  2ED5               	goto	l2188
  4368  0F23                     l2216:
  4369  0F23  3001               	movlw	1
  4370  0F24  00C8               	movwf	??___fltol
  4371  0F25                     u1785:
  4372  0F25  1003               	clrc
  4373  0F26  0DC4               	rlf	___fltol@f1,f
  4374  0F27  0DC5               	rlf	___fltol@f1+1,f
  4375  0F28  0DC6               	rlf	___fltol@f1+2,f
  4376  0F29  0DC7               	rlf	___fltol@f1+3,f
  4377  0F2A  0BC8               	decfsz	??___fltol,f
  4378  0F2B  2F25               	goto	u1785
  4379  0F2C  3001               	movlw	1
  4380  0F2D  02CE               	subwf	___fltol@exp1,f
  4381  0F2E                     l487:
  4382  0F2E  084E               	movf	___fltol@exp1,w
  4383  0F2F  1D03               	btfss	3,2
  4384  0F30  2F32               	goto	u1791
  4385  0F31  2F33               	goto	u1790
  4386  0F32                     u1791:
  4387  0F32  2F23               	goto	l2216
  4388  0F33                     u1790:
  4389  0F33                     l2218:
  4390  0F33  084D               	movf	___fltol@sign1,w
  4391  0F34  1903               	btfsc	3,2
  4392  0F35  2F37               	goto	u1801
  4393  0F36  2F38               	goto	u1800
  4394  0F37                     u1801:
  4395  0F37  2F43               	goto	l490
  4396  0F38                     u1800:
  4397  0F38                     l2220:
  4398  0F38  09C4               	comf	___fltol@f1,f
  4399  0F39  09C5               	comf	___fltol@f1+1,f
  4400  0F3A  09C6               	comf	___fltol@f1+2,f
  4401  0F3B  09C7               	comf	___fltol@f1+3,f
  4402  0F3C  0AC4               	incf	___fltol@f1,f
  4403  0F3D  1903               	skipnz
  4404  0F3E  0AC5               	incf	___fltol@f1+1,f
  4405  0F3F  1903               	skipnz
  4406  0F40  0AC6               	incf	___fltol@f1+2,f
  4407  0F41  1903               	skipnz
  4408  0F42  0AC7               	incf	___fltol@f1+3,f
  4409  0F43                     l490:
  4410  0F43                     l480:
  4411  0F43  0008               	return
  4412  0F44                     __end_of___fltol:
  4413                           
  4414                           	psect	text14
  4415  002C                     __ptext14:	
  4416 ;; *************** function ___flmul *****************
  4417 ;; Defined at:
  4418 ;;		line 8 in file "C:\Program Files\Microchip\xc8\v2.31\pic\sources\c90\common\sprcmul.c"
  4419 ;; Parameters:    Size  Location     Type
  4420 ;;  b               4   10[BANK0 ] long 
  4421 ;;  a               4   14[BANK0 ] long 
  4422 ;; Auto vars:     Size  Location     Type
  4423 ;;  prod            4   30[BANK0 ] struct .
  4424 ;;  grs             4   24[BANK0 ] unsigned long 
  4425 ;;  temp            2   34[BANK0 ] struct .
  4426 ;;  bexp            1   29[BANK0 ] unsigned char 
  4427 ;;  aexp            1   28[BANK0 ] unsigned char 
  4428 ;;  sign            1   23[BANK0 ] unsigned char 
  4429 ;; Return value:  Size  Location     Type
  4430 ;;                  4   10[BANK0 ] unsigned char 
  4431 ;; Registers used:
  4432 ;;		wreg, status,2, status,0, btemp+1, pclath, cstack
  4433 ;; Tracked objects:
  4434 ;;		On entry : 0/0
  4435 ;;		On exit  : 0/0
  4436 ;;		Unchanged: 0/0
  4437 ;; Data sizes:     COMMON   BANK0   BANK1   BANK3   BANK2
  4438 ;;      Params:         0       8       0       0       0
  4439 ;;      Locals:         0      13       0       0       0
  4440 ;;      Temps:          0       5       0       0       0
  4441 ;;      Totals:         0      26       0       0       0
  4442 ;;Total ram usage:       26 bytes
  4443 ;; Hardware stack levels used:    1
  4444 ;; Hardware stack levels required when called:    2
  4445 ;; This function calls:
  4446 ;;		__Umul8_16
  4447 ;; This function is called by:
  4448 ;;		_main
  4449 ;; This function uses a non-reentrant model
  4450 ;;
  4451                           
  4452                           
  4453                           ;psect for function ___flmul
  4454  002C                     ___flmul:
  4455  002C                     l2222:	
  4456                           ;incstack = 0
  4457                           ; Regs used in ___flmul: [wreg+status,2+status,0+btemp+1+pclath+cstack]
  4458                           
  4459  002C  1283               	bcf	3,5	;RP0=0, select bank0
  4460  002D  1303               	bcf	3,6	;RP1=0, select bank0
  4461  002E  082D               	movf	___flmul@b+3,w
  4462  002F  3980               	andlw	128
  4463  0030  00B2               	movwf	??___flmul
  4464  0031  0832               	movf	??___flmul,w
  4465  0032  00B7               	movwf	___flmul@sign
  4466  0033                     l2224:
  4467  0033  082D               	movf	___flmul@b+3,w
  4468  0034  00B2               	movwf	??___flmul
  4469  0035  0732               	addwf	??___flmul,w
  4470  0036  00B3               	movwf	??___flmul+1
  4471  0037  0833               	movf	??___flmul+1,w
  4472  0038  00BD               	movwf	___flmul@bexp
  4473  0039                     l2226:
  4474  0039  1FAC               	btfss	___flmul@b+2,7
  4475  003A  283C               	goto	u1811
  4476  003B  283D               	goto	u1810
  4477  003C                     u1811:
  4478  003C  283E               	goto	l2230
  4479  003D                     u1810:
  4480  003D                     l2228:
  4481  003D  143D               	bsf	___flmul@bexp,0
  4482  003E                     l2230:
  4483  003E  083D               	movf	___flmul@bexp,w
  4484  003F  1903               	btfsc	3,2
  4485  0040  2842               	goto	u1821
  4486  0041  2843               	goto	u1820
  4487  0042                     u1821:
  4488  0042  2852               	goto	l2238
  4489  0043                     u1820:
  4490  0043                     l2232:
  4491  0043  0A3D               	incf	___flmul@bexp,w
  4492  0044  1D03               	btfss	3,2
  4493  0045  2847               	goto	u1831
  4494  0046  2848               	goto	u1830
  4495  0047                     u1831:
  4496  0047  2850               	goto	l2236
  4497  0048                     u1830:
  4498  0048                     l2234:
  4499  0048  3000               	movlw	0
  4500  0049  00AD               	movwf	___flmul@b+3
  4501  004A  3000               	movlw	0
  4502  004B  00AC               	movwf	___flmul@b+2
  4503  004C  3000               	movlw	0
  4504  004D  00AB               	movwf	___flmul@b+1
  4505  004E  3000               	movlw	0
  4506  004F  00AA               	movwf	___flmul@b
  4507  0050                     l2236:
  4508  0050  17AC               	bsf	___flmul@b+2,7
  4509  0051  285A               	goto	l2240
  4510  0052                     l2238:
  4511  0052  3000               	movlw	0
  4512  0053  00AD               	movwf	___flmul@b+3
  4513  0054  3000               	movlw	0
  4514  0055  00AC               	movwf	___flmul@b+2
  4515  0056  3000               	movlw	0
  4516  0057  00AB               	movwf	___flmul@b+1
  4517  0058  3000               	movlw	0
  4518  0059  00AA               	movwf	___flmul@b
  4519  005A                     l2240:
  4520  005A  0831               	movf	___flmul@a+3,w
  4521  005B  3980               	andlw	128
  4522  005C  00B2               	movwf	??___flmul
  4523  005D  0832               	movf	??___flmul,w
  4524  005E  06B7               	xorwf	___flmul@sign,f
  4525  005F                     l2242:
  4526  005F  0831               	movf	___flmul@a+3,w
  4527  0060  00B2               	movwf	??___flmul
  4528  0061  0732               	addwf	??___flmul,w
  4529  0062  00B3               	movwf	??___flmul+1
  4530  0063  0833               	movf	??___flmul+1,w
  4531  0064  00BC               	movwf	___flmul@aexp
  4532  0065                     l2244:
  4533  0065  1FB0               	btfss	___flmul@a+2,7
  4534  0066  2868               	goto	u1841
  4535  0067  2869               	goto	u1840
  4536  0068                     u1841:
  4537  0068  286A               	goto	l2248
  4538  0069                     u1840:
  4539  0069                     l2246:
  4540  0069  143C               	bsf	___flmul@aexp,0
  4541  006A                     l2248:
  4542  006A  083C               	movf	___flmul@aexp,w
  4543  006B  1903               	btfsc	3,2
  4544  006C  286E               	goto	u1851
  4545  006D  286F               	goto	u1850
  4546  006E                     u1851:
  4547  006E  287E               	goto	l2256
  4548  006F                     u1850:
  4549  006F                     l2250:
  4550  006F  0A3C               	incf	___flmul@aexp,w
  4551  0070  1D03               	btfss	3,2
  4552  0071  2873               	goto	u1861
  4553  0072  2874               	goto	u1860
  4554  0073                     u1861:
  4555  0073  287C               	goto	l2254
  4556  0074                     u1860:
  4557  0074                     l2252:
  4558  0074  3000               	movlw	0
  4559  0075  00B1               	movwf	___flmul@a+3
  4560  0076  3000               	movlw	0
  4561  0077  00B0               	movwf	___flmul@a+2
  4562  0078  3000               	movlw	0
  4563  0079  00AF               	movwf	___flmul@a+1
  4564  007A  3000               	movlw	0
  4565  007B  00AE               	movwf	___flmul@a
  4566  007C                     l2254:
  4567  007C  17B0               	bsf	___flmul@a+2,7
  4568  007D  2886               	goto	l2258
  4569  007E                     l2256:
  4570  007E  3000               	movlw	0
  4571  007F  00B1               	movwf	___flmul@a+3
  4572  0080  3000               	movlw	0
  4573  0081  00B0               	movwf	___flmul@a+2
  4574  0082  3000               	movlw	0
  4575  0083  00AF               	movwf	___flmul@a+1
  4576  0084  3000               	movlw	0
  4577  0085  00AE               	movwf	___flmul@a
  4578  0086                     l2258:
  4579  0086  083C               	movf	___flmul@aexp,w
  4580  0087  1903               	btfsc	3,2
  4581  0088  288A               	goto	u1871
  4582  0089  288B               	goto	u1870
  4583  008A                     u1871:
  4584  008A  2890               	goto	l2262
  4585  008B                     u1870:
  4586  008B                     l2260:
  4587  008B  083D               	movf	___flmul@bexp,w
  4588  008C  1D03               	btfss	3,2
  4589  008D  288F               	goto	u1881
  4590  008E  2890               	goto	u1880
  4591  008F                     u1881:
  4592  008F  2899               	goto	l2266
  4593  0090                     u1880:
  4594  0090                     l2262:
  4595  0090  3000               	movlw	0
  4596  0091  00AD               	movwf	?___flmul+3
  4597  0092  3000               	movlw	0
  4598  0093  00AC               	movwf	?___flmul+2
  4599  0094  3000               	movlw	0
  4600  0095  00AB               	movwf	?___flmul+1
  4601  0096  3000               	movlw	0
  4602  0097  00AA               	movwf	?___flmul
  4603  0098  2B8C               	goto	l683
  4604  0099                     l2266:
  4605  0099  082A               	movf	___flmul@b,w
  4606  009A  00B2               	movwf	??___flmul
  4607  009B  0832               	movf	??___flmul,w
  4608  009C  00F3               	movwf	__Umul8_16@multiplicand
  4609  009D  0830               	movf	___flmul@a+2,w
  4610  009E  120A  158A  23A8  120A  118A  	fcall	__Umul8_16
  4611  00A3  0874               	movf	?__Umul8_16+1,w
  4612  00A4  1283               	bcf	3,5	;RP0=0, select bank0
  4613  00A5  1303               	bcf	3,6	;RP1=0, select bank0
  4614  00A6  00C3               	movwf	___flmul@temp+1
  4615  00A7  0873               	movf	?__Umul8_16,w
  4616  00A8  00C2               	movwf	___flmul@temp
  4617  00A9                     l2268:
  4618  00A9  0842               	movf	___flmul@temp,w
  4619  00AA  00B2               	movwf	??___flmul
  4620  00AB  01B3               	clrf	??___flmul+1
  4621  00AC  01B4               	clrf	??___flmul+2
  4622  00AD  01B5               	clrf	??___flmul+3
  4623  00AE  0835               	movf	??___flmul+3,w
  4624  00AF  00BB               	movwf	___flmul@grs+3
  4625  00B0  0834               	movf	??___flmul+2,w
  4626  00B1  00BA               	movwf	___flmul@grs+2
  4627  00B2  0833               	movf	??___flmul+1,w
  4628  00B3  00B9               	movwf	___flmul@grs+1
  4629  00B4  0832               	movf	??___flmul,w
  4630  00B5  00B8               	movwf	___flmul@grs
  4631  00B6                     l2270:
  4632  00B6  0843               	movf	___flmul@temp+1,w
  4633  00B7  00B2               	movwf	??___flmul
  4634  00B8  01B3               	clrf	??___flmul+1
  4635  00B9  01B4               	clrf	??___flmul+2
  4636  00BA  01B5               	clrf	??___flmul+3
  4637  00BB  0835               	movf	??___flmul+3,w
  4638  00BC  00C1               	movwf	___flmul@prod+3
  4639  00BD  0834               	movf	??___flmul+2,w
  4640  00BE  00C0               	movwf	___flmul@prod+2
  4641  00BF  0833               	movf	??___flmul+1,w
  4642  00C0  00BF               	movwf	___flmul@prod+1
  4643  00C1  0832               	movf	??___flmul,w
  4644  00C2  00BE               	movwf	___flmul@prod
  4645  00C3  082B               	movf	___flmul@b+1,w
  4646  00C4  00B2               	movwf	??___flmul
  4647  00C5  0832               	movf	??___flmul,w
  4648  00C6  00F3               	movwf	__Umul8_16@multiplicand
  4649  00C7  082F               	movf	___flmul@a+1,w
  4650  00C8  120A  158A  23A8  120A  118A  	fcall	__Umul8_16
  4651  00CD  0874               	movf	?__Umul8_16+1,w
  4652  00CE  1283               	bcf	3,5	;RP0=0, select bank0
  4653  00CF  1303               	bcf	3,6	;RP1=0, select bank0
  4654  00D0  00C3               	movwf	___flmul@temp+1
  4655  00D1  0873               	movf	?__Umul8_16,w
  4656  00D2  00C2               	movwf	___flmul@temp
  4657  00D3                     l2272:
  4658  00D3  0842               	movf	___flmul@temp,w
  4659  00D4  00B2               	movwf	??___flmul
  4660  00D5  01B3               	clrf	??___flmul+1
  4661  00D6  01B4               	clrf	??___flmul+2
  4662  00D7  01B5               	clrf	??___flmul+3
  4663  00D8  0832               	movf	??___flmul,w
  4664  00D9  07B8               	addwf	___flmul@grs,f
  4665  00DA  0833               	movf	??___flmul+1,w
  4666  00DB  1103               	clrz
  4667  00DC  1803               	skipnc
  4668  00DD  3E01               	addlw	1
  4669  00DE  1903               	skipnz
  4670  00DF  28E1               	goto	u1891
  4671  00E0  07B9               	addwf	___flmul@grs+1,f
  4672  00E1                     u1891:
  4673  00E1  0834               	movf	??___flmul+2,w
  4674  00E2  1103               	clrz
  4675  00E3  1803               	skipnc
  4676  00E4  3E01               	addlw	1
  4677  00E5  1903               	skipnz
  4678  00E6  28E8               	goto	u1892
  4679  00E7  07BA               	addwf	___flmul@grs+2,f
  4680  00E8                     u1892:
  4681  00E8  0835               	movf	??___flmul+3,w
  4682  00E9  1103               	clrz
  4683  00EA  1803               	skipnc
  4684  00EB  3E01               	addlw	1
  4685  00EC  1903               	skipnz
  4686  00ED  28EF               	goto	u1893
  4687  00EE  07BB               	addwf	___flmul@grs+3,f
  4688  00EF                     u1893:
  4689  00EF                     l2274:
  4690  00EF  0843               	movf	___flmul@temp+1,w
  4691  00F0  00B2               	movwf	??___flmul
  4692  00F1  01B3               	clrf	??___flmul+1
  4693  00F2  01B4               	clrf	??___flmul+2
  4694  00F3  01B5               	clrf	??___flmul+3
  4695  00F4  0832               	movf	??___flmul,w
  4696  00F5  07BE               	addwf	___flmul@prod,f
  4697  00F6  0833               	movf	??___flmul+1,w
  4698  00F7  1103               	clrz
  4699  00F8  1803               	skipnc
  4700  00F9  3E01               	addlw	1
  4701  00FA  1903               	skipnz
  4702  00FB  28FD               	goto	u1901
  4703  00FC  07BF               	addwf	___flmul@prod+1,f
  4704  00FD                     u1901:
  4705  00FD  0834               	movf	??___flmul+2,w
  4706  00FE  1103               	clrz
  4707  00FF  1803               	skipnc
  4708  0100  3E01               	addlw	1
  4709  0101  1903               	skipnz
  4710  0102  2904               	goto	u1902
  4711  0103  07C0               	addwf	___flmul@prod+2,f
  4712  0104                     u1902:
  4713  0104  0835               	movf	??___flmul+3,w
  4714  0105  1103               	clrz
  4715  0106  1803               	skipnc
  4716  0107  3E01               	addlw	1
  4717  0108  1903               	skipnz
  4718  0109  290B               	goto	u1903
  4719  010A  07C1               	addwf	___flmul@prod+3,f
  4720  010B                     u1903:
  4721  010B  082C               	movf	___flmul@b+2,w
  4722  010C  00B2               	movwf	??___flmul
  4723  010D  0832               	movf	??___flmul,w
  4724  010E  00F3               	movwf	__Umul8_16@multiplicand
  4725  010F  082E               	movf	___flmul@a,w
  4726  0110  120A  158A  23A8  120A  118A  	fcall	__Umul8_16
  4727  0115  0874               	movf	?__Umul8_16+1,w
  4728  0116  1283               	bcf	3,5	;RP0=0, select bank0
  4729  0117  1303               	bcf	3,6	;RP1=0, select bank0
  4730  0118  00C3               	movwf	___flmul@temp+1
  4731  0119  0873               	movf	?__Umul8_16,w
  4732  011A  00C2               	movwf	___flmul@temp
  4733  011B                     l2276:
  4734  011B  0842               	movf	___flmul@temp,w
  4735  011C  00B2               	movwf	??___flmul
  4736  011D  01B3               	clrf	??___flmul+1
  4737  011E  01B4               	clrf	??___flmul+2
  4738  011F  01B5               	clrf	??___flmul+3
  4739  0120  0832               	movf	??___flmul,w
  4740  0121  07B8               	addwf	___flmul@grs,f
  4741  0122  0833               	movf	??___flmul+1,w
  4742  0123  1103               	clrz
  4743  0124  1803               	skipnc
  4744  0125  3E01               	addlw	1
  4745  0126  1903               	skipnz
  4746  0127  2929               	goto	u1911
  4747  0128  07B9               	addwf	___flmul@grs+1,f
  4748  0129                     u1911:
  4749  0129  0834               	movf	??___flmul+2,w
  4750  012A  1103               	clrz
  4751  012B  1803               	skipnc
  4752  012C  3E01               	addlw	1
  4753  012D  1903               	skipnz
  4754  012E  2930               	goto	u1912
  4755  012F  07BA               	addwf	___flmul@grs+2,f
  4756  0130                     u1912:
  4757  0130  0835               	movf	??___flmul+3,w
  4758  0131  1103               	clrz
  4759  0132  1803               	skipnc
  4760  0133  3E01               	addlw	1
  4761  0134  1903               	skipnz
  4762  0135  2937               	goto	u1913
  4763  0136  07BB               	addwf	___flmul@grs+3,f
  4764  0137                     u1913:
  4765  0137                     l2278:
  4766  0137  0843               	movf	___flmul@temp+1,w
  4767  0138  00B2               	movwf	??___flmul
  4768  0139  01B3               	clrf	??___flmul+1
  4769  013A  01B4               	clrf	??___flmul+2
  4770  013B  01B5               	clrf	??___flmul+3
  4771  013C  0832               	movf	??___flmul,w
  4772  013D  07BE               	addwf	___flmul@prod,f
  4773  013E  0833               	movf	??___flmul+1,w
  4774  013F  1103               	clrz
  4775  0140  1803               	skipnc
  4776  0141  3E01               	addlw	1
  4777  0142  1903               	skipnz
  4778  0143  2945               	goto	u1921
  4779  0144  07BF               	addwf	___flmul@prod+1,f
  4780  0145                     u1921:
  4781  0145  0834               	movf	??___flmul+2,w
  4782  0146  1103               	clrz
  4783  0147  1803               	skipnc
  4784  0148  3E01               	addlw	1
  4785  0149  1903               	skipnz
  4786  014A  294C               	goto	u1922
  4787  014B  07C0               	addwf	___flmul@prod+2,f
  4788  014C                     u1922:
  4789  014C  0835               	movf	??___flmul+3,w
  4790  014D  1103               	clrz
  4791  014E  1803               	skipnc
  4792  014F  3E01               	addlw	1
  4793  0150  1903               	skipnz
  4794  0151  2953               	goto	u1923
  4795  0152  07C1               	addwf	___flmul@prod+3,f
  4796  0153                     u1923:
  4797  0153                     l2280:
  4798  0153  3008               	movlw	8
  4799  0154  00B2               	movwf	??___flmul
  4800  0155                     u1935:
  4801  0155  1003               	clrc
  4802  0156  0DB8               	rlf	___flmul@grs,f
  4803  0157  0DB9               	rlf	___flmul@grs+1,f
  4804  0158  0DBA               	rlf	___flmul@grs+2,f
  4805  0159  0DBB               	rlf	___flmul@grs+3,f
  4806  015A  0BB2               	decfsz	??___flmul,f
  4807  015B  2955               	goto	u1935
  4808  015C                     l2282:
  4809  015C  082B               	movf	___flmul@b+1,w
  4810  015D  00B2               	movwf	??___flmul
  4811  015E  0832               	movf	??___flmul,w
  4812  015F  00F3               	movwf	__Umul8_16@multiplicand
  4813  0160  082E               	movf	___flmul@a,w
  4814  0161  120A  158A  23A8  120A  118A  	fcall	__Umul8_16
  4815  0166  0874               	movf	?__Umul8_16+1,w
  4816  0167  1283               	bcf	3,5	;RP0=0, select bank0
  4817  0168  1303               	bcf	3,6	;RP1=0, select bank0
  4818  0169  00C3               	movwf	___flmul@temp+1
  4819  016A  0873               	movf	?__Umul8_16,w
  4820  016B  00C2               	movwf	___flmul@temp
  4821  016C                     l2284:
  4822  016C  0842               	movf	___flmul@temp,w
  4823  016D  00B2               	movwf	??___flmul
  4824  016E  0843               	movf	___flmul@temp+1,w
  4825  016F  00B3               	movwf	??___flmul+1
  4826  0170  01B4               	clrf	??___flmul+2
  4827  0171  01B5               	clrf	??___flmul+3
  4828  0172  0832               	movf	??___flmul,w
  4829  0173  07B8               	addwf	___flmul@grs,f
  4830  0174  0833               	movf	??___flmul+1,w
  4831  0175  1103               	clrz
  4832  0176  1803               	skipnc
  4833  0177  3E01               	addlw	1
  4834  0178  1903               	skipnz
  4835  0179  297B               	goto	u1941
  4836  017A  07B9               	addwf	___flmul@grs+1,f
  4837  017B                     u1941:
  4838  017B  0834               	movf	??___flmul+2,w
  4839  017C  1103               	clrz
  4840  017D  1803               	skipnc
  4841  017E  3E01               	addlw	1
  4842  017F  1903               	skipnz
  4843  0180  2982               	goto	u1942
  4844  0181  07BA               	addwf	___flmul@grs+2,f
  4845  0182                     u1942:
  4846  0182  0835               	movf	??___flmul+3,w
  4847  0183  1103               	clrz
  4848  0184  1803               	skipnc
  4849  0185  3E01               	addlw	1
  4850  0186  1903               	skipnz
  4851  0187  2989               	goto	u1943
  4852  0188  07BB               	addwf	___flmul@grs+3,f
  4853  0189                     u1943:
  4854  0189                     l2286:
  4855  0189  082A               	movf	___flmul@b,w
  4856  018A  00B2               	movwf	??___flmul
  4857  018B  0832               	movf	??___flmul,w
  4858  018C  00F3               	movwf	__Umul8_16@multiplicand
  4859  018D  082F               	movf	___flmul@a+1,w
  4860  018E  120A  158A  23A8  120A  118A  	fcall	__Umul8_16
  4861  0193  0874               	movf	?__Umul8_16+1,w
  4862  0194  1283               	bcf	3,5	;RP0=0, select bank0
  4863  0195  1303               	bcf	3,6	;RP1=0, select bank0
  4864  0196  00C3               	movwf	___flmul@temp+1
  4865  0197  0873               	movf	?__Umul8_16,w
  4866  0198  00C2               	movwf	___flmul@temp
  4867  0199                     l2288:
  4868  0199  0842               	movf	___flmul@temp,w
  4869  019A  00B2               	movwf	??___flmul
  4870  019B  0843               	movf	___flmul@temp+1,w
  4871  019C  00B3               	movwf	??___flmul+1
  4872  019D  01B4               	clrf	??___flmul+2
  4873  019E  01B5               	clrf	??___flmul+3
  4874  019F  0832               	movf	??___flmul,w
  4875  01A0  07B8               	addwf	___flmul@grs,f
  4876  01A1  0833               	movf	??___flmul+1,w
  4877  01A2  1103               	clrz
  4878  01A3  1803               	skipnc
  4879  01A4  3E01               	addlw	1
  4880  01A5  1903               	skipnz
  4881  01A6  29A8               	goto	u1951
  4882  01A7  07B9               	addwf	___flmul@grs+1,f
  4883  01A8                     u1951:
  4884  01A8  0834               	movf	??___flmul+2,w
  4885  01A9  1103               	clrz
  4886  01AA  1803               	skipnc
  4887  01AB  3E01               	addlw	1
  4888  01AC  1903               	skipnz
  4889  01AD  29AF               	goto	u1952
  4890  01AE  07BA               	addwf	___flmul@grs+2,f
  4891  01AF                     u1952:
  4892  01AF  0835               	movf	??___flmul+3,w
  4893  01B0  1103               	clrz
  4894  01B1  1803               	skipnc
  4895  01B2  3E01               	addlw	1
  4896  01B3  1903               	skipnz
  4897  01B4  29B6               	goto	u1953
  4898  01B5  07BB               	addwf	___flmul@grs+3,f
  4899  01B6                     u1953:
  4900  01B6                     l2290:
  4901  01B6  3008               	movlw	8
  4902  01B7  00B2               	movwf	??___flmul
  4903  01B8                     u1965:
  4904  01B8  1003               	clrc
  4905  01B9  0DB8               	rlf	___flmul@grs,f
  4906  01BA  0DB9               	rlf	___flmul@grs+1,f
  4907  01BB  0DBA               	rlf	___flmul@grs+2,f
  4908  01BC  0DBB               	rlf	___flmul@grs+3,f
  4909  01BD  0BB2               	decfsz	??___flmul,f
  4910  01BE  29B8               	goto	u1965
  4911  01BF  082A               	movf	___flmul@b,w
  4912  01C0  00B2               	movwf	??___flmul
  4913  01C1  0832               	movf	??___flmul,w
  4914  01C2  00F3               	movwf	__Umul8_16@multiplicand
  4915  01C3  082E               	movf	___flmul@a,w
  4916  01C4  120A  158A  23A8  120A  118A  	fcall	__Umul8_16
  4917  01C9  0874               	movf	?__Umul8_16+1,w
  4918  01CA  1283               	bcf	3,5	;RP0=0, select bank0
  4919  01CB  1303               	bcf	3,6	;RP1=0, select bank0
  4920  01CC  00C3               	movwf	___flmul@temp+1
  4921  01CD  0873               	movf	?__Umul8_16,w
  4922  01CE  00C2               	movwf	___flmul@temp
  4923  01CF                     l2292:
  4924  01CF  0842               	movf	___flmul@temp,w
  4925  01D0  00B2               	movwf	??___flmul
  4926  01D1  0843               	movf	___flmul@temp+1,w
  4927  01D2  00B3               	movwf	??___flmul+1
  4928  01D3  01B4               	clrf	??___flmul+2
  4929  01D4  01B5               	clrf	??___flmul+3
  4930  01D5  0832               	movf	??___flmul,w
  4931  01D6  07B8               	addwf	___flmul@grs,f
  4932  01D7  0833               	movf	??___flmul+1,w
  4933  01D8  1103               	clrz
  4934  01D9  1803               	skipnc
  4935  01DA  3E01               	addlw	1
  4936  01DB  1903               	skipnz
  4937  01DC  29DE               	goto	u1971
  4938  01DD  07B9               	addwf	___flmul@grs+1,f
  4939  01DE                     u1971:
  4940  01DE  0834               	movf	??___flmul+2,w
  4941  01DF  1103               	clrz
  4942  01E0  1803               	skipnc
  4943  01E1  3E01               	addlw	1
  4944  01E2  1903               	skipnz
  4945  01E3  29E5               	goto	u1972
  4946  01E4  07BA               	addwf	___flmul@grs+2,f
  4947  01E5                     u1972:
  4948  01E5  0835               	movf	??___flmul+3,w
  4949  01E6  1103               	clrz
  4950  01E7  1803               	skipnc
  4951  01E8  3E01               	addlw	1
  4952  01E9  1903               	skipnz
  4953  01EA  29EC               	goto	u1973
  4954  01EB  07BB               	addwf	___flmul@grs+3,f
  4955  01EC                     u1973:
  4956  01EC                     l2294:
  4957  01EC  082B               	movf	___flmul@b+1,w
  4958  01ED  00B2               	movwf	??___flmul
  4959  01EE  0832               	movf	??___flmul,w
  4960  01EF  00F3               	movwf	__Umul8_16@multiplicand
  4961  01F0  0830               	movf	___flmul@a+2,w
  4962  01F1  120A  158A  23A8  120A  118A  	fcall	__Umul8_16
  4963  01F6  0874               	movf	?__Umul8_16+1,w
  4964  01F7  1283               	bcf	3,5	;RP0=0, select bank0
  4965  01F8  1303               	bcf	3,6	;RP1=0, select bank0
  4966  01F9  00C3               	movwf	___flmul@temp+1
  4967  01FA  0873               	movf	?__Umul8_16,w
  4968  01FB  00C2               	movwf	___flmul@temp
  4969  01FC  0842               	movf	___flmul@temp,w
  4970  01FD  00B2               	movwf	??___flmul
  4971  01FE  0843               	movf	___flmul@temp+1,w
  4972  01FF  00B3               	movwf	??___flmul+1
  4973  0200  01B4               	clrf	??___flmul+2
  4974  0201  01B5               	clrf	??___flmul+3
  4975  0202  0832               	movf	??___flmul,w
  4976  0203  07BE               	addwf	___flmul@prod,f
  4977  0204  0833               	movf	??___flmul+1,w
  4978  0205  1103               	clrz
  4979  0206  1803               	skipnc
  4980  0207  3E01               	addlw	1
  4981  0208  1903               	skipnz
  4982  0209  2A0B               	goto	u1981
  4983  020A  07BF               	addwf	___flmul@prod+1,f
  4984  020B                     u1981:
  4985  020B  0834               	movf	??___flmul+2,w
  4986  020C  1103               	clrz
  4987  020D  1803               	skipnc
  4988  020E  3E01               	addlw	1
  4989  020F  1903               	skipnz
  4990  0210  2A12               	goto	u1982
  4991  0211  07C0               	addwf	___flmul@prod+2,f
  4992  0212                     u1982:
  4993  0212  0835               	movf	??___flmul+3,w
  4994  0213  1103               	clrz
  4995  0214  1803               	skipnc
  4996  0215  3E01               	addlw	1
  4997  0216  1903               	skipnz
  4998  0217  2A19               	goto	u1983
  4999  0218  07C1               	addwf	___flmul@prod+3,f
  5000  0219                     u1983:
  5001  0219                     l2296:
  5002  0219  082C               	movf	___flmul@b+2,w
  5003  021A  00B2               	movwf	??___flmul
  5004  021B  0832               	movf	??___flmul,w
  5005  021C  00F3               	movwf	__Umul8_16@multiplicand
  5006  021D  082F               	movf	___flmul@a+1,w
  5007  021E  120A  158A  23A8  120A  118A  	fcall	__Umul8_16
  5008  0223  0874               	movf	?__Umul8_16+1,w
  5009  0224  1283               	bcf	3,5	;RP0=0, select bank0
  5010  0225  1303               	bcf	3,6	;RP1=0, select bank0
  5011  0226  00C3               	movwf	___flmul@temp+1
  5012  0227  0873               	movf	?__Umul8_16,w
  5013  0228  00C2               	movwf	___flmul@temp
  5014  0229                     l2298:
  5015  0229  0842               	movf	___flmul@temp,w
  5016  022A  00B2               	movwf	??___flmul
  5017  022B  0843               	movf	___flmul@temp+1,w
  5018  022C  00B3               	movwf	??___flmul+1
  5019  022D  01B4               	clrf	??___flmul+2
  5020  022E  01B5               	clrf	??___flmul+3
  5021  022F  0832               	movf	??___flmul,w
  5022  0230  07BE               	addwf	___flmul@prod,f
  5023  0231  0833               	movf	??___flmul+1,w
  5024  0232  1103               	clrz
  5025  0233  1803               	skipnc
  5026  0234  3E01               	addlw	1
  5027  0235  1903               	skipnz
  5028  0236  2A38               	goto	u1991
  5029  0237  07BF               	addwf	___flmul@prod+1,f
  5030  0238                     u1991:
  5031  0238  0834               	movf	??___flmul+2,w
  5032  0239  1103               	clrz
  5033  023A  1803               	skipnc
  5034  023B  3E01               	addlw	1
  5035  023C  1903               	skipnz
  5036  023D  2A3F               	goto	u1992
  5037  023E  07C0               	addwf	___flmul@prod+2,f
  5038  023F                     u1992:
  5039  023F  0835               	movf	??___flmul+3,w
  5040  0240  1103               	clrz
  5041  0241  1803               	skipnc
  5042  0242  3E01               	addlw	1
  5043  0243  1903               	skipnz
  5044  0244  2A46               	goto	u1993
  5045  0245  07C1               	addwf	___flmul@prod+3,f
  5046  0246                     u1993:
  5047  0246  082C               	movf	___flmul@b+2,w
  5048  0247  00B2               	movwf	??___flmul
  5049  0248  0832               	movf	??___flmul,w
  5050  0249  00F3               	movwf	__Umul8_16@multiplicand
  5051  024A  0830               	movf	___flmul@a+2,w
  5052  024B  120A  158A  23A8  120A  118A  	fcall	__Umul8_16
  5053  0250  0874               	movf	?__Umul8_16+1,w
  5054  0251  1283               	bcf	3,5	;RP0=0, select bank0
  5055  0252  1303               	bcf	3,6	;RP1=0, select bank0
  5056  0253  00C3               	movwf	___flmul@temp+1
  5057  0254  0873               	movf	?__Umul8_16,w
  5058  0255  00C2               	movwf	___flmul@temp
  5059  0256                     l2300:
  5060  0256  0842               	movf	___flmul@temp,w
  5061  0257  00B2               	movwf	??___flmul
  5062  0258  0843               	movf	___flmul@temp+1,w
  5063  0259  00B3               	movwf	??___flmul+1
  5064  025A  01B4               	clrf	??___flmul+2
  5065  025B  01B5               	clrf	??___flmul+3
  5066  025C  3008               	movlw	8
  5067  025D                     u2005:
  5068  025D  1003               	clrc
  5069  025E  0DB2               	rlf	??___flmul,f
  5070  025F  0DB3               	rlf	??___flmul+1,f
  5071  0260  0DB4               	rlf	??___flmul+2,f
  5072  0261  0DB5               	rlf	??___flmul+3,f
  5073  0262                     u2000:
  5074  0262  3EFF               	addlw	-1
  5075  0263  1D03               	skipz
  5076  0264  2A5D               	goto	u2005
  5077  0265  0832               	movf	??___flmul,w
  5078  0266  07BE               	addwf	___flmul@prod,f
  5079  0267  0833               	movf	??___flmul+1,w
  5080  0268  1103               	clrz
  5081  0269  1803               	skipnc
  5082  026A  3E01               	addlw	1
  5083  026B  1903               	skipnz
  5084  026C  2A6E               	goto	u2011
  5085  026D  07BF               	addwf	___flmul@prod+1,f
  5086  026E                     u2011:
  5087  026E  0834               	movf	??___flmul+2,w
  5088  026F  1103               	clrz
  5089  0270  1803               	skipnc
  5090  0271  3E01               	addlw	1
  5091  0272  1903               	skipnz
  5092  0273  2A75               	goto	u2012
  5093  0274  07C0               	addwf	___flmul@prod+2,f
  5094  0275                     u2012:
  5095  0275  0835               	movf	??___flmul+3,w
  5096  0276  1103               	clrz
  5097  0277  1803               	skipnc
  5098  0278  3E01               	addlw	1
  5099  0279  1903               	skipnz
  5100  027A  2A7C               	goto	u2013
  5101  027B  07C1               	addwf	___flmul@prod+3,f
  5102  027C                     u2013:
  5103  027C                     l2302:
  5104  027C  0838               	movf	___flmul@grs,w
  5105  027D  00B2               	movwf	??___flmul
  5106  027E  0839               	movf	___flmul@grs+1,w
  5107  027F  00B3               	movwf	??___flmul+1
  5108  0280  083A               	movf	___flmul@grs+2,w
  5109  0281  00B4               	movwf	??___flmul+2
  5110  0282  083B               	movf	___flmul@grs+3,w
  5111  0283  00B5               	movwf	??___flmul+3
  5112  0284  3018               	movlw	24
  5113  0285                     u2025:
  5114  0285  1003               	clrc
  5115  0286  0CB5               	rrf	??___flmul+3,f
  5116  0287  0CB4               	rrf	??___flmul+2,f
  5117  0288  0CB3               	rrf	??___flmul+1,f
  5118  0289  0CB2               	rrf	??___flmul,f
  5119  028A                     u2020:
  5120  028A  3EFF               	addlw	-1
  5121  028B  1D03               	skipz
  5122  028C  2A85               	goto	u2025
  5123  028D  0832               	movf	??___flmul,w
  5124  028E  07BE               	addwf	___flmul@prod,f
  5125  028F  0833               	movf	??___flmul+1,w
  5126  0290  1103               	clrz
  5127  0291  1803               	skipnc
  5128  0292  3E01               	addlw	1
  5129  0293  1903               	skipnz
  5130  0294  2A96               	goto	u2031
  5131  0295  07BF               	addwf	___flmul@prod+1,f
  5132  0296                     u2031:
  5133  0296  0834               	movf	??___flmul+2,w
  5134  0297  1103               	clrz
  5135  0298  1803               	skipnc
  5136  0299  3E01               	addlw	1
  5137  029A  1903               	skipnz
  5138  029B  2A9D               	goto	u2032
  5139  029C  07C0               	addwf	___flmul@prod+2,f
  5140  029D                     u2032:
  5141  029D  0835               	movf	??___flmul+3,w
  5142  029E  1103               	clrz
  5143  029F  1803               	skipnc
  5144  02A0  3E01               	addlw	1
  5145  02A1  1903               	skipnz
  5146  02A2  2AA4               	goto	u2033
  5147  02A3  07C1               	addwf	___flmul@prod+3,f
  5148  02A4                     u2033:
  5149  02A4                     l2304:
  5150  02A4  3008               	movlw	8
  5151  02A5  00B2               	movwf	??___flmul
  5152  02A6                     u2045:
  5153  02A6  1003               	clrc
  5154  02A7  0DB8               	rlf	___flmul@grs,f
  5155  02A8  0DB9               	rlf	___flmul@grs+1,f
  5156  02A9  0DBA               	rlf	___flmul@grs+2,f
  5157  02AA  0DBB               	rlf	___flmul@grs+3,f
  5158  02AB  0BB2               	decfsz	??___flmul,f
  5159  02AC  2AA6               	goto	u2045
  5160  02AD                     l2306:
  5161  02AD  083D               	movf	___flmul@bexp,w
  5162  02AE  073C               	addwf	___flmul@aexp,w
  5163  02AF  00B2               	movwf	??___flmul
  5164  02B0  01B3               	clrf	??___flmul+1
  5165  02B1  0DB3               	rlf	??___flmul+1,f
  5166  02B2  0832               	movf	??___flmul,w
  5167  02B3  3E82               	addlw	130
  5168  02B4  00C2               	movwf	___flmul@temp
  5169  02B5  0833               	movf	??___flmul+1,w
  5170  02B6  1803               	skipnc
  5171  02B7  3E01               	addlw	1
  5172  02B8  3EFF               	addlw	255
  5173  02B9  00C3               	movwf	___flmul@temp+1
  5174  02BA  2AD8               	goto	l2318
  5175  02BB                     l2308:
  5176  02BB  3001               	movlw	1
  5177  02BC  00B2               	movwf	??___flmul
  5178  02BD                     u2055:
  5179  02BD  1003               	clrc
  5180  02BE  0DBE               	rlf	___flmul@prod,f
  5181  02BF  0DBF               	rlf	___flmul@prod+1,f
  5182  02C0  0DC0               	rlf	___flmul@prod+2,f
  5183  02C1  0DC1               	rlf	___flmul@prod+3,f
  5184  02C2  0BB2               	decfsz	??___flmul,f
  5185  02C3  2ABD               	goto	u2055
  5186  02C4                     l2310:
  5187  02C4  1FBB               	btfss	___flmul@grs+3,7
  5188  02C5  2AC7               	goto	u2061
  5189  02C6  2AC8               	goto	u2060
  5190  02C7                     u2061:
  5191  02C7  2AC9               	goto	l2314
  5192  02C8                     u2060:
  5193  02C8                     l2312:
  5194  02C8  143E               	bsf	___flmul@prod,0
  5195  02C9                     l2314:
  5196  02C9  3001               	movlw	1
  5197  02CA  00B2               	movwf	??___flmul
  5198  02CB                     u2075:
  5199  02CB  1003               	clrc
  5200  02CC  0DB8               	rlf	___flmul@grs,f
  5201  02CD  0DB9               	rlf	___flmul@grs+1,f
  5202  02CE  0DBA               	rlf	___flmul@grs+2,f
  5203  02CF  0DBB               	rlf	___flmul@grs+3,f
  5204  02D0  0BB2               	decfsz	??___flmul,f
  5205  02D1  2ACB               	goto	u2075
  5206  02D2                     l2316:
  5207  02D2  30FF               	movlw	255
  5208  02D3  07C2               	addwf	___flmul@temp,f
  5209  02D4  1803               	skipnc
  5210  02D5  0AC3               	incf	___flmul@temp+1,f
  5211  02D6  30FF               	movlw	255
  5212  02D7  07C3               	addwf	___flmul@temp+1,f
  5213  02D8                     l2318:
  5214  02D8  1FC0               	btfss	___flmul@prod+2,7
  5215  02D9  2ADB               	goto	u2081
  5216  02DA  2ADC               	goto	u2080
  5217  02DB                     u2081:
  5218  02DB  2ABB               	goto	l2308
  5219  02DC                     u2080:
  5220  02DC                     l2320:
  5221  02DC  01BC               	clrf	___flmul@aexp
  5222  02DD                     l2322:
  5223  02DD  1FBB               	btfss	___flmul@grs+3,7
  5224  02DE  2AE0               	goto	u2091
  5225  02DF  2AE1               	goto	u2090
  5226  02E0                     u2091:
  5227  02E0  2AFD               	goto	l2330
  5228  02E1                     u2090:
  5229  02E1                     l2324:
  5230  02E1  30FF               	movlw	255
  5231  02E2  0538               	andwf	___flmul@grs,w
  5232  02E3  00B2               	movwf	??___flmul
  5233  02E4  30FF               	movlw	255
  5234  02E5  0539               	andwf	___flmul@grs+1,w
  5235  02E6  00B3               	movwf	??___flmul+1
  5236  02E7  30FF               	movlw	255
  5237  02E8  053A               	andwf	___flmul@grs+2,w
  5238  02E9  00B4               	movwf	??___flmul+2
  5239  02EA  307F               	movlw	127
  5240  02EB  053B               	andwf	___flmul@grs+3,w
  5241  02EC  00B5               	movwf	??___flmul+3
  5242  02ED  0835               	movf	??___flmul+3,w
  5243  02EE  0434               	iorwf	??___flmul+2,w
  5244  02EF  0433               	iorwf	??___flmul+1,w
  5245  02F0  0432               	iorwf	??___flmul,w
  5246  02F1  1903               	skipnz
  5247  02F2  2AF4               	goto	u2101
  5248  02F3  2AF5               	goto	u2100
  5249  02F4                     u2101:
  5250  02F4  2AF8               	goto	l689
  5251  02F5                     u2100:
  5252  02F5                     l2326:
  5253  02F5  01BC               	clrf	___flmul@aexp
  5254  02F6  0ABC               	incf	___flmul@aexp,f
  5255  02F7  2AFD               	goto	l2330
  5256  02F8                     l689:
  5257  02F8  1C3E               	btfss	___flmul@prod,0
  5258  02F9  2AFB               	goto	u2111
  5259  02FA  2AFC               	goto	u2110
  5260  02FB                     u2111:
  5261  02FB  2AFD               	goto	l2330
  5262  02FC                     u2110:
  5263  02FC  2AF5               	goto	l2326
  5264  02FD                     l2330:
  5265  02FD  083C               	movf	___flmul@aexp,w
  5266  02FE  1903               	btfsc	3,2
  5267  02FF  2B01               	goto	u2121
  5268  0300  2B02               	goto	u2120
  5269  0301                     u2121:
  5270  0301  2B33               	goto	l2340
  5271  0302                     u2120:
  5272  0302                     l2332:
  5273  0302  3001               	movlw	1
  5274  0303  07BE               	addwf	___flmul@prod,f
  5275  0304  3000               	movlw	0
  5276  0305  1803               	skipnc
  5277  0306  3001               	movlw	1
  5278  0307  07BF               	addwf	___flmul@prod+1,f
  5279  0308  3000               	movlw	0
  5280  0309  1803               	skipnc
  5281  030A  3001               	movlw	1
  5282  030B  07C0               	addwf	___flmul@prod+2,f
  5283  030C  3000               	movlw	0
  5284  030D  1803               	skipnc
  5285  030E  3001               	movlw	1
  5286  030F  07C1               	addwf	___flmul@prod+3,f
  5287  0310                     l2334:
  5288  0310  1C41               	btfss	___flmul@prod+3,0
  5289  0311  2B13               	goto	u2131
  5290  0312  2B14               	goto	u2130
  5291  0313                     u2131:
  5292  0313  2B33               	goto	l2340
  5293  0314                     u2130:
  5294  0314                     l2336:
  5295  0314  083E               	movf	___flmul@prod,w
  5296  0315  00B2               	movwf	??___flmul
  5297  0316  083F               	movf	___flmul@prod+1,w
  5298  0317  00B3               	movwf	??___flmul+1
  5299  0318  0840               	movf	___flmul@prod+2,w
  5300  0319  00B4               	movwf	??___flmul+2
  5301  031A  0841               	movf	___flmul@prod+3,w
  5302  031B  00B5               	movwf	??___flmul+3
  5303  031C  3001               	movlw	1
  5304  031D  00B6               	movwf	??___flmul+4
  5305  031E                     u2145:
  5306  031E  0D35               	rlf	??___flmul+3,w
  5307  031F  0CB5               	rrf	??___flmul+3,f
  5308  0320  0CB4               	rrf	??___flmul+2,f
  5309  0321  0CB3               	rrf	??___flmul+1,f
  5310  0322  0CB2               	rrf	??___flmul,f
  5311  0323                     u2140:
  5312  0323  0BB6               	decfsz	??___flmul+4,f
  5313  0324  2B1E               	goto	u2145
  5314  0325  0835               	movf	??___flmul+3,w
  5315  0326  00C1               	movwf	___flmul@prod+3
  5316  0327  0834               	movf	??___flmul+2,w
  5317  0328  00C0               	movwf	___flmul@prod+2
  5318  0329  0833               	movf	??___flmul+1,w
  5319  032A  00BF               	movwf	___flmul@prod+1
  5320  032B  0832               	movf	??___flmul,w
  5321  032C  00BE               	movwf	___flmul@prod
  5322  032D                     l2338:
  5323  032D  3001               	movlw	1
  5324  032E  07C2               	addwf	___flmul@temp,f
  5325  032F  1803               	skipnc
  5326  0330  0AC3               	incf	___flmul@temp+1,f
  5327  0331  3000               	movlw	0
  5328  0332  07C3               	addwf	___flmul@temp+1,f
  5329  0333                     l2340:
  5330  0333  0843               	movf	___flmul@temp+1,w
  5331  0334  3A80               	xorlw	128
  5332  0335  00FF               	movwf	btemp+1
  5333  0336  3080               	movlw	128
  5334  0337  027F               	subwf	btemp+1,w
  5335  0338  1D03               	skipz
  5336  0339  2B3C               	goto	u2155
  5337  033A  30FF               	movlw	255
  5338  033B  0242               	subwf	___flmul@temp,w
  5339  033C                     u2155:
  5340  033C  1C03               	skipc
  5341  033D  2B3F               	goto	u2151
  5342  033E  2B40               	goto	u2150
  5343  033F                     u2151:
  5344  033F  2B4B               	goto	l2344
  5345  0340                     u2150:
  5346  0340                     l2342:
  5347  0340  307F               	movlw	127
  5348  0341  1283               	bcf	3,5	;RP0=0, select bank0
  5349  0342  1303               	bcf	3,6	;RP1=0, select bank0
  5350  0343  00C1               	movwf	___flmul@prod+3
  5351  0344  3080               	movlw	128
  5352  0345  00C0               	movwf	___flmul@prod+2
  5353  0346  3000               	movlw	0
  5354  0347  00BF               	movwf	___flmul@prod+1
  5355  0348  3000               	movlw	0
  5356  0349  00BE               	movwf	___flmul@prod
  5357  034A  2B80               	goto	l695
  5358  034B                     l2344:
  5359  034B  1283               	bcf	3,5	;RP0=0, select bank0
  5360  034C  1303               	bcf	3,6	;RP1=0, select bank0
  5361  034D  0843               	movf	___flmul@temp+1,w
  5362  034E  3A80               	xorlw	128
  5363  034F  00FF               	movwf	btemp+1
  5364  0350  3080               	movlw	128
  5365  0351  027F               	subwf	btemp+1,w
  5366  0352  1D03               	skipz
  5367  0353  2B56               	goto	u2165
  5368  0354  3001               	movlw	1
  5369  0355  0242               	subwf	___flmul@temp,w
  5370  0356                     u2165:
  5371  0356  1803               	skipnc
  5372  0357  2B59               	goto	u2161
  5373  0358  2B5A               	goto	u2160
  5374  0359                     u2161:
  5375  0359  2B66               	goto	l2350
  5376  035A                     u2160:
  5377  035A                     l2346:
  5378  035A  3000               	movlw	0
  5379  035B  1283               	bcf	3,5	;RP0=0, select bank0
  5380  035C  1303               	bcf	3,6	;RP1=0, select bank0
  5381  035D  00C1               	movwf	___flmul@prod+3
  5382  035E  3000               	movlw	0
  5383  035F  00C0               	movwf	___flmul@prod+2
  5384  0360  3000               	movlw	0
  5385  0361  00BF               	movwf	___flmul@prod+1
  5386  0362  3000               	movlw	0
  5387  0363  00BE               	movwf	___flmul@prod
  5388  0364                     l2348:
  5389  0364  01B7               	clrf	___flmul@sign
  5390  0365  2B80               	goto	l695
  5391  0366                     l2350:
  5392  0366  1283               	bcf	3,5	;RP0=0, select bank0
  5393  0367  1303               	bcf	3,6	;RP1=0, select bank0
  5394  0368  0842               	movf	___flmul@temp,w
  5395  0369  00B2               	movwf	??___flmul
  5396  036A  0832               	movf	??___flmul,w
  5397  036B  00BD               	movwf	___flmul@bexp
  5398  036C  30FF               	movlw	255
  5399  036D  05BE               	andwf	___flmul@prod,f
  5400  036E  30FF               	movlw	255
  5401  036F  05BF               	andwf	___flmul@prod+1,f
  5402  0370  307F               	movlw	127
  5403  0371  05C0               	andwf	___flmul@prod+2,f
  5404  0372  3000               	movlw	0
  5405  0373  05C1               	andwf	___flmul@prod+3,f
  5406  0374                     l2352:
  5407  0374  1C3D               	btfss	___flmul@bexp,0
  5408  0375  2B77               	goto	u2171
  5409  0376  2B78               	goto	u2170
  5410  0377                     u2171:
  5411  0377  2B79               	goto	l2356
  5412  0378                     u2170:
  5413  0378                     l2354:
  5414  0378  17C0               	bsf	___flmul@prod+2,7
  5415  0379                     l2356:
  5416  0379  083D               	movf	___flmul@bexp,w
  5417  037A  00B2               	movwf	??___flmul
  5418  037B  1003               	clrc
  5419  037C  0C32               	rrf	??___flmul,w
  5420  037D  00B3               	movwf	??___flmul+1
  5421  037E  0833               	movf	??___flmul+1,w
  5422  037F  00C1               	movwf	___flmul@prod+3
  5423  0380                     l695:
  5424  0380  0837               	movf	___flmul@sign,w
  5425  0381  00B2               	movwf	??___flmul
  5426  0382  0832               	movf	??___flmul,w
  5427  0383  04C1               	iorwf	___flmul@prod+3,f
  5428  0384                     l2358:
  5429  0384  0841               	movf	___flmul@prod+3,w
  5430  0385  00AD               	movwf	?___flmul+3
  5431  0386  0840               	movf	___flmul@prod+2,w
  5432  0387  00AC               	movwf	?___flmul+2
  5433  0388  083F               	movf	___flmul@prod+1,w
  5434  0389  00AB               	movwf	?___flmul+1
  5435  038A  083E               	movf	___flmul@prod,w
  5436  038B  00AA               	movwf	?___flmul
  5437  038C                     l683:
  5438  038C  0008               	return
  5439  038D                     __end_of___flmul:
  5440                           
  5441                           	psect	text15
  5442  0BA8                     __ptext15:	
  5443 ;; *************** function __Umul8_16 *****************
  5444 ;; Defined at:
  5445 ;;		line 4 in file "C:\Program Files\Microchip\xc8\v2.31\pic\sources\c90\common\Umul8_16.c"
  5446 ;; Parameters:    Size  Location     Type
  5447 ;;  multiplier      1    wreg     unsigned char 
  5448 ;;  multiplicand    1    3[COMMON] unsigned char 
  5449 ;; Auto vars:     Size  Location     Type
  5450 ;;  multiplier      1    4[BANK0 ] unsigned char 
  5451 ;;  word_mpld       2    2[BANK0 ] unsigned int 
  5452 ;;  product         2    0[BANK0 ] unsigned int 
  5453 ;; Return value:  Size  Location     Type
  5454 ;;                  2    3[COMMON] unsigned int 
  5455 ;; Registers used:
  5456 ;;		wreg, status,2, status,0
  5457 ;; Tracked objects:
  5458 ;;		On entry : 0/0
  5459 ;;		On exit  : 0/0
  5460 ;;		Unchanged: 0/0
  5461 ;; Data sizes:     COMMON   BANK0   BANK1   BANK3   BANK2
  5462 ;;      Params:         2       0       0       0       0
  5463 ;;      Locals:         0       5       0       0       0
  5464 ;;      Temps:          2       0       0       0       0
  5465 ;;      Totals:         4       5       0       0       0
  5466 ;;Total ram usage:        9 bytes
  5467 ;; Hardware stack levels used:    1
  5468 ;; Hardware stack levels required when called:    1
  5469 ;; This function calls:
  5470 ;;		Nothing
  5471 ;; This function is called by:
  5472 ;;		___flmul
  5473 ;; This function uses a non-reentrant model
  5474 ;;
  5475                           
  5476                           
  5477                           ;psect for function __Umul8_16
  5478  0BA8                     __Umul8_16:
  5479                           
  5480                           ;incstack = 0
  5481                           ; Regs used in __Umul8_16: [wreg+status,2+status,0]
  5482                           ;__Umul8_16@multiplier stored from wreg
  5483  0BA8  1283               	bcf	3,5	;RP0=0, select bank0
  5484  0BA9  1303               	bcf	3,6	;RP1=0, select bank0
  5485  0BAA  00A4               	movwf	__Umul8_16@multiplier
  5486  0BAB                     l1964:
  5487  0BAB  01A0               	clrf	__Umul8_16@product
  5488  0BAC  01A1               	clrf	__Umul8_16@product+1
  5489  0BAD                     l1966:
  5490  0BAD  0873               	movf	__Umul8_16@multiplicand,w
  5491  0BAE  00F5               	movwf	??__Umul8_16
  5492  0BAF  01F6               	clrf	??__Umul8_16+1
  5493  0BB0  0875               	movf	??__Umul8_16,w
  5494  0BB1  00A2               	movwf	__Umul8_16@word_mpld
  5495  0BB2  0876               	movf	??__Umul8_16+1,w
  5496  0BB3  00A3               	movwf	__Umul8_16@word_mpld+1
  5497  0BB4                     l1968:
  5498  0BB4  1C24               	btfss	__Umul8_16@multiplier,0
  5499  0BB5  2BB7               	goto	u1531
  5500  0BB6  2BB8               	goto	u1530
  5501  0BB7                     u1531:
  5502  0BB7  2BBE               	goto	l702
  5503  0BB8                     u1530:
  5504  0BB8                     l1970:
  5505  0BB8  0822               	movf	__Umul8_16@word_mpld,w
  5506  0BB9  07A0               	addwf	__Umul8_16@product,f
  5507  0BBA  1803               	skipnc
  5508  0BBB  0AA1               	incf	__Umul8_16@product+1,f
  5509  0BBC  0823               	movf	__Umul8_16@word_mpld+1,w
  5510  0BBD  07A1               	addwf	__Umul8_16@product+1,f
  5511  0BBE                     l702:
  5512  0BBE  3001               	movlw	1
  5513  0BBF                     u1545:
  5514  0BBF  1003               	clrc
  5515  0BC0  0DA2               	rlf	__Umul8_16@word_mpld,f
  5516  0BC1  0DA3               	rlf	__Umul8_16@word_mpld+1,f
  5517  0BC2  3EFF               	addlw	-1
  5518  0BC3  1D03               	skipz
  5519  0BC4  2BBF               	goto	u1545
  5520  0BC5  1003               	clrc
  5521  0BC6  0CA4               	rrf	__Umul8_16@multiplier,f
  5522  0BC7                     l1972:
  5523  0BC7  0824               	movf	__Umul8_16@multiplier,w
  5524  0BC8  1D03               	btfss	3,2
  5525  0BC9  2BCB               	goto	u1551
  5526  0BCA  2BCC               	goto	u1550
  5527  0BCB                     u1551:
  5528  0BCB  2BB4               	goto	l1968
  5529  0BCC                     u1550:
  5530  0BCC                     l1974:
  5531  0BCC  0821               	movf	__Umul8_16@product+1,w
  5532  0BCD  00F4               	movwf	?__Umul8_16+1
  5533  0BCE  0820               	movf	__Umul8_16@product,w
  5534  0BCF  00F3               	movwf	?__Umul8_16
  5535  0BD0                     l704:
  5536  0BD0  0008               	return
  5537  0BD1                     __end_of__Umul8_16:
  5538                           
  5539                           	psect	text16
  5540  0BD1                     __ptext16:	
  5541 ;; *************** function _Lcd_Write_String *****************
  5542 ;; Defined at:
  5543 ;;		line 94 in file "Lib_LCD.c"
  5544 ;; Parameters:    Size  Location     Type
  5545 ;;  a               2    0[BANK0 ] PTR unsigned char 
  5546 ;;		 -> RAM(512), main@buffer1(20), main@buffer(20), STR_1(17), 
  5547 ;; Auto vars:     Size  Location     Type
  5548 ;;  i               2    2[BANK0 ] int 
  5549 ;; Return value:  Size  Location     Type
  5550 ;;                  1    wreg      void 
  5551 ;; Registers used:
  5552 ;;		wreg, fsr0l, fsr0h, status,2, status,0, btemp+1, pclath, cstack
  5553 ;; Tracked objects:
  5554 ;;		On entry : 0/0
  5555 ;;		On exit  : 0/0
  5556 ;;		Unchanged: 0/0
  5557 ;; Data sizes:     COMMON   BANK0   BANK1   BANK3   BANK2
  5558 ;;      Params:         0       2       0       0       0
  5559 ;;      Locals:         0       2       0       0       0
  5560 ;;      Temps:          0       0       0       0       0
  5561 ;;      Totals:         0       4       0       0       0
  5562 ;;Total ram usage:        4 bytes
  5563 ;; Hardware stack levels used:    1
  5564 ;; Hardware stack levels required when called:    3
  5565 ;; This function calls:
  5566 ;;		_Lcd_Write_Char
  5567 ;; This function is called by:
  5568 ;;		_main
  5569 ;; This function uses a non-reentrant model
  5570 ;;
  5571                           
  5572                           
  5573                           ;psect for function _Lcd_Write_String
  5574  0BD1                     _Lcd_Write_String:
  5575  0BD1                     l2786:	
  5576                           ;incstack = 0
  5577                           ; Regs used in _Lcd_Write_String: [wreg-fsr0h+status,2+status,0+btemp+1+pclath+cstack]
  5578                           
  5579                           
  5580                           ;Lib_LCD.c: 95:     int i;;Lib_LCD.c: 96:     for (i = 0; a[i] != '\0'; i++)
  5581  0BD1  1283               	bcf	3,5	;RP0=0, select bank0
  5582  0BD2  1303               	bcf	3,6	;RP1=0, select bank0
  5583  0BD3  01A2               	clrf	Lcd_Write_String@i
  5584  0BD4  01A3               	clrf	Lcd_Write_String@i+1
  5585  0BD5  2BF0               	goto	l2792
  5586  0BD6                     l2788:
  5587                           
  5588                           ;Lib_LCD.c: 97:         Lcd_Write_Char(a[i]);
  5589  0BD6  0822               	movf	Lcd_Write_String@i,w
  5590  0BD7  0720               	addwf	Lcd_Write_String@a,w
  5591  0BD8  0084               	movwf	4
  5592  0BD9  0823               	movf	Lcd_Write_String@i+1,w
  5593  0BDA  1803               	skipnc
  5594  0BDB  0A23               	incf	Lcd_Write_String@i+1,w
  5595  0BDC  0721               	addwf	Lcd_Write_String@a+1,w
  5596  0BDD  00FF               	movwf	btemp+1
  5597  0BDE  120A  158A  2000  120A  158A  	fcall	stringtab
  5598  0BE3  120A  158A  236A  120A  158A  	fcall	_Lcd_Write_Char
  5599  0BE8                     l2790:
  5600  0BE8  3001               	movlw	1
  5601  0BE9  1283               	bcf	3,5	;RP0=0, select bank0
  5602  0BEA  1303               	bcf	3,6	;RP1=0, select bank0
  5603  0BEB  07A2               	addwf	Lcd_Write_String@i,f
  5604  0BEC  1803               	skipnc
  5605  0BED  0AA3               	incf	Lcd_Write_String@i+1,f
  5606  0BEE  3000               	movlw	0
  5607  0BEF  07A3               	addwf	Lcd_Write_String@i+1,f
  5608  0BF0                     l2792:
  5609  0BF0  0822               	movf	Lcd_Write_String@i,w
  5610  0BF1  0720               	addwf	Lcd_Write_String@a,w
  5611  0BF2  0084               	movwf	4
  5612  0BF3  0823               	movf	Lcd_Write_String@i+1,w
  5613  0BF4  1803               	skipnc
  5614  0BF5  0A23               	incf	Lcd_Write_String@i+1,w
  5615  0BF6  0721               	addwf	Lcd_Write_String@a+1,w
  5616  0BF7  00FF               	movwf	btemp+1
  5617  0BF8  120A  158A  2000  120A  158A  	fcall	stringtab
  5618  0BFD  3A00               	xorlw	0
  5619  0BFE  1D03               	skipz
  5620  0BFF  2C01               	goto	u2791
  5621  0C00  2C02               	goto	u2790
  5622  0C01                     u2791:
  5623  0C01  2BD6               	goto	l2788
  5624  0C02                     u2790:
  5625  0C02                     l170:
  5626  0C02  0008               	return
  5627  0C03                     __end_of_Lcd_Write_String:
  5628                           
  5629                           	psect	text17
  5630  0B6A                     __ptext17:	
  5631 ;; *************** function _Lcd_Write_Char *****************
  5632 ;; Defined at:
  5633 ;;		line 79 in file "Lib_LCD.c"
  5634 ;; Parameters:    Size  Location     Type
  5635 ;;  a               1    wreg     unsigned char 
  5636 ;; Auto vars:     Size  Location     Type
  5637 ;;  a               1    5[COMMON] unsigned char 
  5638 ;;  y               1    7[COMMON] unsigned char 
  5639 ;;  temp            1    6[COMMON] unsigned char 
  5640 ;; Return value:  Size  Location     Type
  5641 ;;                  1    wreg      void 
  5642 ;; Registers used:
  5643 ;;		wreg, status,2, status,0, pclath, cstack
  5644 ;; Tracked objects:
  5645 ;;		On entry : 0/0
  5646 ;;		On exit  : 0/0
  5647 ;;		Unchanged: 0/0
  5648 ;; Data sizes:     COMMON   BANK0   BANK1   BANK3   BANK2
  5649 ;;      Params:         0       0       0       0       0
  5650 ;;      Locals:         3       0       0       0       0
  5651 ;;      Temps:          1       0       0       0       0
  5652 ;;      Totals:         4       0       0       0       0
  5653 ;;Total ram usage:        4 bytes
  5654 ;; Hardware stack levels used:    1
  5655 ;; Hardware stack levels required when called:    2
  5656 ;; This function calls:
  5657 ;;		_Lcd_Port
  5658 ;; This function is called by:
  5659 ;;		_main
  5660 ;;		_Lcd_Write_String
  5661 ;; This function uses a non-reentrant model
  5662 ;;
  5663                           
  5664                           
  5665                           ;psect for function _Lcd_Write_Char
  5666  0B6A                     _Lcd_Write_Char:
  5667                           
  5668                           ;incstack = 0
  5669                           ; Regs used in _Lcd_Write_Char: [wreg+status,2+status,0+pclath+cstack]
  5670                           ;Lcd_Write_Char@a stored from wreg
  5671  0B6A  00F5               	movwf	Lcd_Write_Char@a
  5672  0B6B                     l1786:
  5673                           
  5674                           ;Lib_LCD.c: 80:     char temp, y;;Lib_LCD.c: 81:     temp = a;
  5675  0B6B  0875               	movf	Lcd_Write_Char@a,w
  5676  0B6C  00F4               	movwf	??_Lcd_Write_Char
  5677  0B6D  0874               	movf	??_Lcd_Write_Char,w
  5678  0B6E  00F6               	movwf	Lcd_Write_Char@temp
  5679                           
  5680                           ;Lib_LCD.c: 82:     y = temp;
  5681  0B6F  0876               	movf	Lcd_Write_Char@temp,w
  5682  0B70  00F4               	movwf	??_Lcd_Write_Char
  5683  0B71  0874               	movf	??_Lcd_Write_Char,w
  5684  0B72  00F7               	movwf	Lcd_Write_Char@y
  5685  0B73                     l1788:
  5686                           
  5687                           ;Lib_LCD.c: 83:     PORTEbits.RE0 = 1;
  5688  0B73  1283               	bcf	3,5	;RP0=0, select bank0
  5689  0B74  1303               	bcf	3,6	;RP1=0, select bank0
  5690  0B75  1409               	bsf	9,0	;volatile
  5691  0B76                     l1790:
  5692                           
  5693                           ;Lib_LCD.c: 84:     Lcd_Port(y);
  5694  0B76  0877               	movf	Lcd_Write_Char@y,w
  5695  0B77  120A  158A  2326  120A  158A  	fcall	_Lcd_Port
  5696  0B7C                     l1792:
  5697                           
  5698                           ;Lib_LCD.c: 85:     PORTEbits.RE2 = 1;
  5699  0B7C  1283               	bcf	3,5	;RP0=0, select bank0
  5700  0B7D  1303               	bcf	3,6	;RP1=0, select bank0
  5701  0B7E  1509               	bsf	9,2	;volatile
  5702  0B7F                     l1794:
  5703                           
  5704                           ;Lib_LCD.c: 86:     _delay((unsigned long)((40)*(4000000/4000000.0)));
  5705  0B7F  300D               	movlw	13
  5706  0B80  00F4               	movwf	??_Lcd_Write_Char
  5707  0B81                     u3197:
  5708  0B81  0BF4               	decfsz	??_Lcd_Write_Char,f
  5709  0B82  2B81               	goto	u3197
  5710  0B83                     l1796:
  5711                           
  5712                           ;Lib_LCD.c: 87:     PORTEbits.RE2 = 0;
  5713  0B83  1283               	bcf	3,5	;RP0=0, select bank0
  5714  0B84  1303               	bcf	3,6	;RP1=0, select bank0
  5715  0B85  1109               	bcf	9,2	;volatile
  5716  0B86                     l164:
  5717  0B86  0008               	return
  5718  0B87                     __end_of_Lcd_Write_Char:
  5719                           
  5720                           	psect	text18
  5721  0D47                     __ptext18:	
  5722 ;; *************** function _Lcd_Set_Cursor *****************
  5723 ;; Defined at:
  5724 ;;		line 43 in file "Lib_LCD.c"
  5725 ;; Parameters:    Size  Location     Type
  5726 ;;  a               1    wreg     unsigned char 
  5727 ;;  b               1    7[COMMON] unsigned char 
  5728 ;; Auto vars:     Size  Location     Type
  5729 ;;  a               1    2[BANK0 ] unsigned char 
  5730 ;;  temp            1    5[BANK0 ] unsigned char 
  5731 ;;  y               1    4[BANK0 ] unsigned char 
  5732 ;;  z               1    3[BANK0 ] unsigned char 
  5733 ;; Return value:  Size  Location     Type
  5734 ;;                  1    wreg      void 
  5735 ;; Registers used:
  5736 ;;		wreg, status,2, status,0, pclath, cstack
  5737 ;; Tracked objects:
  5738 ;;		On entry : 0/0
  5739 ;;		On exit  : 0/0
  5740 ;;		Unchanged: 0/0
  5741 ;; Data sizes:     COMMON   BANK0   BANK1   BANK3   BANK2
  5742 ;;      Params:         1       0       0       0       0
  5743 ;;      Locals:         0       4       0       0       0
  5744 ;;      Temps:          0       2       0       0       0
  5745 ;;      Totals:         1       6       0       0       0
  5746 ;;Total ram usage:        7 bytes
  5747 ;; Hardware stack levels used:    1
  5748 ;; Hardware stack levels required when called:    3
  5749 ;; This function calls:
  5750 ;;		_Lcd_Cmd
  5751 ;; This function is called by:
  5752 ;;		_main
  5753 ;; This function uses a non-reentrant model
  5754 ;;
  5755                           
  5756                           
  5757                           ;psect for function _Lcd_Set_Cursor
  5758  0D47                     _Lcd_Set_Cursor:
  5759                           
  5760                           ;incstack = 0
  5761                           ; Regs used in _Lcd_Set_Cursor: [wreg+status,2+status,0+pclath+cstack]
  5762                           ;Lcd_Set_Cursor@a stored from wreg
  5763  0D47  1283               	bcf	3,5	;RP0=0, select bank0
  5764  0D48  1303               	bcf	3,6	;RP1=0, select bank0
  5765  0D49  00A2               	movwf	Lcd_Set_Cursor@a
  5766  0D4A                     l2766:
  5767                           
  5768                           ;Lib_LCD.c: 44:     char temp, z, y;;Lib_LCD.c: 45:     if (a == 1) {
  5769  0D4A  0322               	decf	Lcd_Set_Cursor@a,w
  5770  0D4B  1D03               	btfss	3,2
  5771  0D4C  2D4E               	goto	u2751
  5772  0D4D  2D4F               	goto	u2750
  5773  0D4E                     u2751:
  5774  0D4E  2D74               	goto	l2776
  5775  0D4F                     u2750:
  5776  0D4F                     l2768:
  5777                           
  5778                           ;Lib_LCD.c: 46:         temp = 0x80 + b - 1;
  5779  0D4F  0877               	movf	Lcd_Set_Cursor@b,w
  5780  0D50  3E7F               	addlw	127
  5781  0D51  00A0               	movwf	??_Lcd_Set_Cursor
  5782  0D52  0820               	movf	??_Lcd_Set_Cursor,w
  5783  0D53  00A5               	movwf	Lcd_Set_Cursor@temp
  5784                           
  5785                           ;Lib_LCD.c: 47:         z = temp >> 4;
  5786  0D54  0825               	movf	Lcd_Set_Cursor@temp,w
  5787  0D55  00A0               	movwf	??_Lcd_Set_Cursor
  5788  0D56  3004               	movlw	4
  5789  0D57                     u2765:
  5790  0D57  1003               	clrc
  5791  0D58  0CA0               	rrf	??_Lcd_Set_Cursor,f
  5792  0D59  3EFF               	addlw	-1
  5793  0D5A  1D03               	skipz
  5794  0D5B  2D57               	goto	u2765
  5795  0D5C  0820               	movf	??_Lcd_Set_Cursor,w
  5796  0D5D  00A1               	movwf	??_Lcd_Set_Cursor+1
  5797  0D5E  0821               	movf	??_Lcd_Set_Cursor+1,w
  5798  0D5F  00A3               	movwf	Lcd_Set_Cursor@z
  5799  0D60                     l2770:
  5800                           
  5801                           ;Lib_LCD.c: 48:         y = temp & 0x0F;
  5802  0D60  0825               	movf	Lcd_Set_Cursor@temp,w
  5803  0D61  390F               	andlw	15
  5804  0D62  00A0               	movwf	??_Lcd_Set_Cursor
  5805  0D63  0820               	movf	??_Lcd_Set_Cursor,w
  5806  0D64  00A4               	movwf	Lcd_Set_Cursor@y
  5807  0D65                     l2772:
  5808                           
  5809                           ;Lib_LCD.c: 49:         Lcd_Cmd(z);
  5810  0D65  0823               	movf	Lcd_Set_Cursor@z,w
  5811  0D66  120A  158A  2335  120A  158A  	fcall	_Lcd_Cmd
  5812  0D6B                     l2774:
  5813                           
  5814                           ;Lib_LCD.c: 51:         Lcd_Cmd(y);
  5815  0D6B  1283               	bcf	3,5	;RP0=0, select bank0
  5816  0D6C  1303               	bcf	3,6	;RP1=0, select bank0
  5817  0D6D  0824               	movf	Lcd_Set_Cursor@y,w
  5818  0D6E  120A  158A  2335  120A  158A  	fcall	_Lcd_Cmd
  5819                           
  5820                           ;Lib_LCD.c: 52:     } else if (a == 2) {
  5821  0D73  2D9E               	goto	l158
  5822  0D74                     l2776:
  5823  0D74  3002               	movlw	2
  5824  0D75  0622               	xorwf	Lcd_Set_Cursor@a,w
  5825  0D76  1D03               	btfss	3,2
  5826  0D77  2D79               	goto	u2771
  5827  0D78  2D7A               	goto	u2770
  5828  0D79                     u2771:
  5829  0D79  2D9E               	goto	l158
  5830  0D7A                     u2770:
  5831  0D7A                     l2778:
  5832                           
  5833                           ;Lib_LCD.c: 53:         temp = 0xC0 + b - 1;
  5834  0D7A  0877               	movf	Lcd_Set_Cursor@b,w
  5835  0D7B  3EBF               	addlw	191
  5836  0D7C  00A0               	movwf	??_Lcd_Set_Cursor
  5837  0D7D  0820               	movf	??_Lcd_Set_Cursor,w
  5838  0D7E  00A5               	movwf	Lcd_Set_Cursor@temp
  5839                           
  5840                           ;Lib_LCD.c: 54:         z = temp >> 4;
  5841  0D7F  0825               	movf	Lcd_Set_Cursor@temp,w
  5842  0D80  00A0               	movwf	??_Lcd_Set_Cursor
  5843  0D81  3004               	movlw	4
  5844  0D82                     u2785:
  5845  0D82  1003               	clrc
  5846  0D83  0CA0               	rrf	??_Lcd_Set_Cursor,f
  5847  0D84  3EFF               	addlw	-1
  5848  0D85  1D03               	skipz
  5849  0D86  2D82               	goto	u2785
  5850  0D87  0820               	movf	??_Lcd_Set_Cursor,w
  5851  0D88  00A1               	movwf	??_Lcd_Set_Cursor+1
  5852  0D89  0821               	movf	??_Lcd_Set_Cursor+1,w
  5853  0D8A  00A3               	movwf	Lcd_Set_Cursor@z
  5854  0D8B                     l2780:
  5855                           
  5856                           ;Lib_LCD.c: 55:         y = temp & 0xF0;
  5857  0D8B  0825               	movf	Lcd_Set_Cursor@temp,w
  5858  0D8C  39F0               	andlw	240
  5859  0D8D  00A0               	movwf	??_Lcd_Set_Cursor
  5860  0D8E  0820               	movf	??_Lcd_Set_Cursor,w
  5861  0D8F  00A4               	movwf	Lcd_Set_Cursor@y
  5862  0D90                     l2782:
  5863                           
  5864                           ;Lib_LCD.c: 56:         Lcd_Cmd(z);
  5865  0D90  0823               	movf	Lcd_Set_Cursor@z,w
  5866  0D91  120A  158A  2335  120A  158A  	fcall	_Lcd_Cmd
  5867  0D96                     l2784:
  5868                           
  5869                           ;Lib_LCD.c: 57:         Lcd_Cmd(y);
  5870  0D96  1283               	bcf	3,5	;RP0=0, select bank0
  5871  0D97  1303               	bcf	3,6	;RP1=0, select bank0
  5872  0D98  0824               	movf	Lcd_Set_Cursor@y,w
  5873  0D99  120A  158A  2335  120A  158A  	fcall	_Lcd_Cmd
  5874  0D9E                     l158:
  5875  0D9E  0008               	return
  5876  0D9F                     __end_of_Lcd_Set_Cursor:
  5877                           
  5878                           	psect	text19
  5879  0CF9                     __ptext19:	
  5880 ;; *************** function _Lcd_Init *****************
  5881 ;; Defined at:
  5882 ;;		line 61 in file "Lib_LCD.c"
  5883 ;; Parameters:    Size  Location     Type
  5884 ;;		None
  5885 ;; Auto vars:     Size  Location     Type
  5886 ;;		None
  5887 ;; Return value:  Size  Location     Type
  5888 ;;                  1    wreg      void 
  5889 ;; Registers used:
  5890 ;;		wreg, status,2, status,0, pclath, cstack
  5891 ;; Tracked objects:
  5892 ;;		On entry : 0/0
  5893 ;;		On exit  : 0/0
  5894 ;;		Unchanged: 0/0
  5895 ;; Data sizes:     COMMON   BANK0   BANK1   BANK3   BANK2
  5896 ;;      Params:         0       0       0       0       0
  5897 ;;      Locals:         0       0       0       0       0
  5898 ;;      Temps:          0       2       0       0       0
  5899 ;;      Totals:         0       2       0       0       0
  5900 ;;Total ram usage:        2 bytes
  5901 ;; Hardware stack levels used:    1
  5902 ;; Hardware stack levels required when called:    3
  5903 ;; This function calls:
  5904 ;;		_Lcd_Cmd
  5905 ;;		_Lcd_Port
  5906 ;; This function is called by:
  5907 ;;		_main
  5908 ;; This function uses a non-reentrant model
  5909 ;;
  5910                           
  5911                           
  5912                           ;psect for function _Lcd_Init
  5913  0CF9                     _Lcd_Init:
  5914  0CF9                     l2756:	
  5915                           ;incstack = 0
  5916                           ; Regs used in _Lcd_Init: [wreg+status,2+status,0+pclath+cstack]
  5917                           
  5918                           
  5919                           ;Lib_LCD.c: 62:     Lcd_Port(0x00);
  5920  0CF9  3000               	movlw	0
  5921  0CFA  120A  158A  2326  120A  158A  	fcall	_Lcd_Port
  5922  0CFF                     l2758:
  5923                           
  5924                           ;Lib_LCD.c: 63:     _delay((unsigned long)((20)*(4000000/4000.0)));
  5925  0CFF  301A               	movlw	26
  5926  0D00  1283               	bcf	3,5	;RP0=0, select bank0
  5927  0D01  1303               	bcf	3,6	;RP1=0, select bank0
  5928  0D02  00A1               	movwf	??_Lcd_Init+1
  5929  0D03  30F7               	movlw	247
  5930  0D04  00A0               	movwf	??_Lcd_Init
  5931  0D05                     u3207:
  5932  0D05  0BA0               	decfsz	??_Lcd_Init,f
  5933  0D06  2D05               	goto	u3207
  5934  0D07  0BA1               	decfsz	??_Lcd_Init+1,f
  5935  0D08  2D05               	goto	u3207
  5936  0D09  2D0A               	nop2
  5937  0D0A                     l2760:
  5938                           
  5939                           ;Lib_LCD.c: 64:     Lcd_Cmd(0x30);
  5940  0D0A  3030               	movlw	48
  5941  0D0B  120A  158A  2335  120A  158A  	fcall	_Lcd_Cmd
  5942                           
  5943                           ;Lib_LCD.c: 65:     _delay((unsigned long)((5)*(4000000/4000.0)));
  5944  0D10  3007               	movlw	7
  5945  0D11  1283               	bcf	3,5	;RP0=0, select bank0
  5946  0D12  1303               	bcf	3,6	;RP1=0, select bank0
  5947  0D13  00A1               	movwf	??_Lcd_Init+1
  5948  0D14  307C               	movlw	124
  5949  0D15  00A0               	movwf	??_Lcd_Init
  5950  0D16                     u3217:
  5951  0D16  0BA0               	decfsz	??_Lcd_Init,f
  5952  0D17  2D16               	goto	u3217
  5953  0D18  0BA1               	decfsz	??_Lcd_Init+1,f
  5954  0D19  2D16               	goto	u3217
  5955  0D1A  0000               	nop
  5956  0D1B                     l2762:
  5957                           
  5958                           ;Lib_LCD.c: 66:     Lcd_Cmd(0x30);
  5959  0D1B  3030               	movlw	48
  5960  0D1C  120A  158A  2335  120A  158A  	fcall	_Lcd_Cmd
  5961  0D21                     l2764:
  5962                           
  5963                           ;Lib_LCD.c: 67:     _delay((unsigned long)((200)*(4000000/4000000.0)));
  5964  0D21  3041               	movlw	65
  5965  0D22  1283               	bcf	3,5	;RP0=0, select bank0
  5966  0D23  1303               	bcf	3,6	;RP1=0, select bank0
  5967  0D24  00A0               	movwf	??_Lcd_Init
  5968  0D25                     u3227:
  5969  0D25  0BA0               	decfsz	??_Lcd_Init,f
  5970  0D26  2D25               	goto	u3227
  5971  0D27  2D28               	nop2
  5972                           
  5973                           ;Lib_LCD.c: 68:     Lcd_Cmd(0x30);
  5974  0D28  3030               	movlw	48
  5975  0D29  120A  158A  2335  120A  158A  	fcall	_Lcd_Cmd
  5976                           
  5977                           ;Lib_LCD.c: 70:     Lcd_Cmd(0x3C);
  5978  0D2E  303C               	movlw	60
  5979  0D2F  120A  158A  2335  120A  158A  	fcall	_Lcd_Cmd
  5980                           
  5981                           ;Lib_LCD.c: 72:     Lcd_Cmd(0x08);
  5982  0D34  3008               	movlw	8
  5983  0D35  120A  158A  2335  120A  158A  	fcall	_Lcd_Cmd
  5984                           
  5985                           ;Lib_LCD.c: 74:     Lcd_Cmd(0x01);
  5986  0D3A  3001               	movlw	1
  5987  0D3B  120A  158A  2335  120A  158A  	fcall	_Lcd_Cmd
  5988                           
  5989                           ;Lib_LCD.c: 76:     Lcd_Cmd(0x06);
  5990  0D40  3006               	movlw	6
  5991  0D41  120A  158A  2335  120A  158A  	fcall	_Lcd_Cmd
  5992  0D46                     l161:
  5993  0D46  0008               	return
  5994  0D47                     __end_of_Lcd_Init:
  5995                           
  5996                           	psect	text20
  5997  07EF                     __ptext20:	
  5998 ;; *************** function _Lcd_Clear *****************
  5999 ;; Defined at:
  6000 ;;		line 25 in file "Lib_LCD.c"
  6001 ;; Parameters:    Size  Location     Type
  6002 ;;		None
  6003 ;; Auto vars:     Size  Location     Type
  6004 ;;		None
  6005 ;; Return value:  Size  Location     Type
  6006 ;;                  1    wreg      void 
  6007 ;; Registers used:
  6008 ;;		wreg, status,2, status,0, pclath, cstack
  6009 ;; Tracked objects:
  6010 ;;		On entry : 0/0
  6011 ;;		On exit  : 0/0
  6012 ;;		Unchanged: 0/0
  6013 ;; Data sizes:     COMMON   BANK0   BANK1   BANK3   BANK2
  6014 ;;      Params:         0       0       0       0       0
  6015 ;;      Locals:         0       0       0       0       0
  6016 ;;      Temps:          0       0       0       0       0
  6017 ;;      Totals:         0       0       0       0       0
  6018 ;;Total ram usage:        0 bytes
  6019 ;; Hardware stack levels used:    1
  6020 ;; Hardware stack levels required when called:    3
  6021 ;; This function calls:
  6022 ;;		_Lcd_Cmd
  6023 ;; This function is called by:
  6024 ;;		_main
  6025 ;; This function uses a non-reentrant model
  6026 ;;
  6027                           
  6028                           
  6029                           ;psect for function _Lcd_Clear
  6030  07EF                     _Lcd_Clear:
  6031  07EF                     l2126:	
  6032                           ;incstack = 0
  6033                           ; Regs used in _Lcd_Clear: [wreg+status,2+status,0+pclath+cstack]
  6034                           
  6035                           
  6036                           ;Lib_LCD.c: 26:     Lcd_Cmd(0);
  6037  07EF  3000               	movlw	0
  6038  07F0  120A  158A  2335  120A  118A  	fcall	_Lcd_Cmd
  6039                           
  6040                           ;Lib_LCD.c: 27:     Lcd_Cmd(1);
  6041  07F5  3001               	movlw	1
  6042  07F6  120A  158A  2335  120A  118A  	fcall	_Lcd_Cmd
  6043  07FB                     l152:
  6044  07FB  0008               	return
  6045  07FC                     __end_of_Lcd_Clear:
  6046                           
  6047                           	psect	text21
  6048  0B35                     __ptext21:	
  6049 ;; *************** function _Lcd_Cmd *****************
  6050 ;; Defined at:
  6051 ;;		line 17 in file "Lib_LCD.c"
  6052 ;; Parameters:    Size  Location     Type
  6053 ;;  a               1    wreg     unsigned char 
  6054 ;; Auto vars:     Size  Location     Type
  6055 ;;  a               1    6[COMMON] unsigned char 
  6056 ;; Return value:  Size  Location     Type
  6057 ;;                  1    wreg      void 
  6058 ;; Registers used:
  6059 ;;		wreg, status,2, status,0, pclath, cstack
  6060 ;; Tracked objects:
  6061 ;;		On entry : 0/0
  6062 ;;		On exit  : 0/0
  6063 ;;		Unchanged: 0/0
  6064 ;; Data sizes:     COMMON   BANK0   BANK1   BANK3   BANK2
  6065 ;;      Params:         0       0       0       0       0
  6066 ;;      Locals:         1       0       0       0       0
  6067 ;;      Temps:          2       0       0       0       0
  6068 ;;      Totals:         3       0       0       0       0
  6069 ;;Total ram usage:        3 bytes
  6070 ;; Hardware stack levels used:    1
  6071 ;; Hardware stack levels required when called:    2
  6072 ;; This function calls:
  6073 ;;		_Lcd_Port
  6074 ;; This function is called by:
  6075 ;;		_Lcd_Clear
  6076 ;;		_Lcd_Set_Cursor
  6077 ;;		_Lcd_Init
  6078 ;;		_Lcd_Shift_Right
  6079 ;;		_Lcd_Shift_Left
  6080 ;; This function uses a non-reentrant model
  6081 ;;
  6082                           
  6083                           
  6084                           ;psect for function _Lcd_Cmd
  6085  0B35                     _Lcd_Cmd:
  6086                           
  6087                           ;incstack = 0
  6088                           ; Regs used in _Lcd_Cmd: [wreg+status,2+status,0+pclath+cstack]
  6089                           ;Lcd_Cmd@a stored from wreg
  6090  0B35  00F6               	movwf	Lcd_Cmd@a
  6091  0B36                     l1872:
  6092                           
  6093                           ;Lib_LCD.c: 18:     PORTEbits.RE0 = 0;
  6094  0B36  1283               	bcf	3,5	;RP0=0, select bank0
  6095  0B37  1303               	bcf	3,6	;RP1=0, select bank0
  6096  0B38  1009               	bcf	9,0	;volatile
  6097  0B39                     l1874:
  6098                           
  6099                           ;Lib_LCD.c: 19:     Lcd_Port(a);
  6100  0B39  0876               	movf	Lcd_Cmd@a,w
  6101  0B3A  120A  158A  2326  120A  158A  	fcall	_Lcd_Port
  6102  0B3F                     l1876:
  6103                           
  6104                           ;Lib_LCD.c: 20:     PORTEbits.RE2 = 1;
  6105  0B3F  1283               	bcf	3,5	;RP0=0, select bank0
  6106  0B40  1303               	bcf	3,6	;RP1=0, select bank0
  6107  0B41  1509               	bsf	9,2	;volatile
  6108  0B42                     l1878:
  6109                           
  6110                           ;Lib_LCD.c: 21:     _delay((unsigned long)((4)*(4000000/4000.0)));
  6111  0B42  3006               	movlw	6
  6112  0B43  00F5               	movwf	??_Lcd_Cmd+1
  6113  0B44  3030               	movlw	48
  6114  0B45  00F4               	movwf	??_Lcd_Cmd
  6115  0B46                     u3237:
  6116  0B46  0BF4               	decfsz	??_Lcd_Cmd,f
  6117  0B47  2B46               	goto	u3237
  6118  0B48  0BF5               	decfsz	??_Lcd_Cmd+1,f
  6119  0B49  2B46               	goto	u3237
  6120  0B4A  0000               	nop
  6121  0B4B                     l1880:
  6122                           
  6123                           ;Lib_LCD.c: 22:     PORTEbits.RE2 = 0;
  6124  0B4B  1283               	bcf	3,5	;RP0=0, select bank0
  6125  0B4C  1303               	bcf	3,6	;RP1=0, select bank0
  6126  0B4D  1109               	bcf	9,2	;volatile
  6127  0B4E                     l149:
  6128  0B4E  0008               	return
  6129  0B4F                     __end_of_Lcd_Cmd:
  6130                           
  6131                           	psect	text22
  6132  0B26                     __ptext22:	
  6133 ;; *************** function _Lcd_Port *****************
  6134 ;; Defined at:
  6135 ;;		line 12 in file "Lib_LCD.c"
  6136 ;; Parameters:    Size  Location     Type
  6137 ;;  a               1    wreg     unsigned char 
  6138 ;; Auto vars:     Size  Location     Type
  6139 ;;  a               1    3[COMMON] unsigned char 
  6140 ;; Return value:  Size  Location     Type
  6141 ;;                  1    wreg      void 
  6142 ;; Registers used:
  6143 ;;		wreg
  6144 ;; Tracked objects:
  6145 ;;		On entry : 0/0
  6146 ;;		On exit  : 0/0
  6147 ;;		Unchanged: 0/0
  6148 ;; Data sizes:     COMMON   BANK0   BANK1   BANK3   BANK2
  6149 ;;      Params:         0       0       0       0       0
  6150 ;;      Locals:         1       0       0       0       0
  6151 ;;      Temps:          0       0       0       0       0
  6152 ;;      Totals:         1       0       0       0       0
  6153 ;;Total ram usage:        1 bytes
  6154 ;; Hardware stack levels used:    1
  6155 ;; Hardware stack levels required when called:    1
  6156 ;; This function calls:
  6157 ;;		Nothing
  6158 ;; This function is called by:
  6159 ;;		_Lcd_Cmd
  6160 ;;		_Lcd_Init
  6161 ;;		_Lcd_Write_Char
  6162 ;; This function uses a non-reentrant model
  6163 ;;
  6164                           
  6165                           
  6166                           ;psect for function _Lcd_Port
  6167  0B26                     _Lcd_Port:
  6168                           
  6169                           ;incstack = 0
  6170                           ; Regs used in _Lcd_Port: [wreg]
  6171                           ;Lcd_Port@a stored from wreg
  6172  0B26  00F3               	movwf	Lcd_Port@a
  6173  0B27                     l1736:
  6174                           
  6175                           ;Lib_LCD.c: 13:     PORTD = a;
  6176  0B27  0873               	movf	Lcd_Port@a,w
  6177  0B28  1283               	bcf	3,5	;RP0=0, select bank0
  6178  0B29  1303               	bcf	3,6	;RP1=0, select bank0
  6179  0B2A  0088               	movwf	8	;volatile
  6180  0B2B                     l146:
  6181  0B2B  0008               	return
  6182  0B2C                     __end_of_Lcd_Port:
  6183                           
  6184                           	psect	text23
  6185  0C03                     __ptext23:	
  6186 ;; *************** function _isr *****************
  6187 ;; Defined at:
  6188 ;;		line 82 in file "Lab02.c"
  6189 ;; Parameters:    Size  Location     Type
  6190 ;;		None
  6191 ;; Auto vars:     Size  Location     Type
  6192 ;;		None
  6193 ;; Return value:  Size  Location     Type
  6194 ;;                  1    wreg      void 
  6195 ;; Registers used:
  6196 ;;		wreg, status,2, status,0
  6197 ;; Tracked objects:
  6198 ;;		On entry : 0/0
  6199 ;;		On exit  : 0/0
  6200 ;;		Unchanged: 0/0
  6201 ;; Data sizes:     COMMON   BANK0   BANK1   BANK3   BANK2
  6202 ;;      Params:         0       0       0       0       0
  6203 ;;      Locals:         0       0       0       0       0
  6204 ;;      Temps:          3       0       0       0       0
  6205 ;;      Totals:         3       0       0       0       0
  6206 ;;Total ram usage:        3 bytes
  6207 ;; Hardware stack levels used:    1
  6208 ;; This function calls:
  6209 ;;		Nothing
  6210 ;; This function is called by:
  6211 ;;		Interrupt level 1
  6212 ;; This function uses a non-reentrant model
  6213 ;;
  6214                           
  6215                           
  6216                           ;psect for function _isr
  6217  0C03                     _isr:
  6218  0C03                     i1l2406:
  6219  0C03  1283               	bcf	3,5	;RP0=0, select bank0
  6220  0C04  1303               	bcf	3,6	;RP1=0, select bank0
  6221  0C05  1F0C               	btfss	12,6	;volatile
  6222  0C06  2C08               	goto	u232_21
  6223  0C07  2C09               	goto	u232_20
  6224  0C08                     u232_21:
  6225  0C08  2C2E               	goto	i1l2420
  6226  0C09                     u232_20:
  6227  0C09                     i1l2408:
  6228  0C09  0C1F               	rrf	31,w	;volatile
  6229  0C0A  00F0               	movwf	??_isr
  6230  0C0B  0C70               	rrf	??_isr,w
  6231  0C0C  390F               	andlw	15
  6232  0C0D  3A00               	xorlw	0
  6233  0C0E  1D03               	skipz
  6234  0C0F  2C11               	goto	u233_21
  6235  0C10  2C12               	goto	u233_20
  6236  0C11                     u233_21:
  6237  0C11  2C1D               	goto	i1l2414
  6238  0C12                     u233_20:
  6239  0C12                     i1l2410:
  6240  0C12  081F               	movf	31,w	;volatile
  6241  0C13  39C3               	andlw	-61
  6242  0C14  3804               	iorlw	4
  6243  0C15  009F               	movwf	31	;volatile
  6244  0C16                     i1l2412:
  6245  0C16  081E               	movf	30,w	;volatile
  6246  0C17  00F0               	movwf	??_isr
  6247  0C18  0870               	movf	??_isr,w
  6248  0C19  1683               	bsf	3,5	;RP0=1, select bank1
  6249  0C1A  1303               	bcf	3,6	;RP1=0, select bank1
  6250  0C1B  00D0               	movwf	_volt01^(0+128)
  6251  0C1C  2C2E               	goto	i1l2420
  6252  0C1D                     i1l2414:
  6253  0C1D  0C1F               	rrf	31,w	;volatile
  6254  0C1E  00F0               	movwf	??_isr
  6255  0C1F  0C70               	rrf	??_isr,w
  6256  0C20  390F               	andlw	15
  6257  0C21  3A01               	xorlw	1
  6258  0C22  1D03               	skipz
  6259  0C23  2C25               	goto	u234_21
  6260  0C24  2C26               	goto	u234_20
  6261  0C25                     u234_21:
  6262  0C25  2C2E               	goto	i1l2420
  6263  0C26                     u234_20:
  6264  0C26                     i1l2416:
  6265  0C26  30C3               	movlw	-61
  6266  0C27  059F               	andwf	31,f	;volatile
  6267  0C28                     i1l2418:
  6268  0C28  081E               	movf	30,w	;volatile
  6269  0C29  00F0               	movwf	??_isr
  6270  0C2A  0870               	movf	??_isr,w
  6271  0C2B  1683               	bsf	3,5	;RP0=1, select bank1
  6272  0C2C  1303               	bcf	3,6	;RP1=0, select bank1
  6273  0C2D  00CF               	movwf	_volt02^(0+128)
  6274  0C2E                     i1l2420:
  6275  0C2E  1283               	bcf	3,5	;RP0=0, select bank0
  6276  0C2F  130C               	bcf	12,6	;volatile
  6277  0C30                     i1l105:
  6278  0C30  0872               	movf	??_isr+2,w
  6279  0C31  008A               	movwf	10
  6280  0C32  0E71               	swapf	??_isr+1,w
  6281  0C33  0083               	movwf	3
  6282  0C34  0EFE               	swapf	btemp,f
  6283  0C35  0E7E               	swapf	btemp,w
  6284  0C36  0009               	retfie
  6285  0C37                     __end_of_isr:
  6286  0002                     
  6287                           	psect	intentry
  6288  0004                     __pintentry:	
  6289                           ;incstack = 0
  6290                           ; Regs used in _isr: [wreg+status,2+status,0]
  6291                           
  6292  0004                     interrupt_function:
  6293  007E                     saved_w	set	btemp
  6294  0004  00FE               	movwf	btemp
  6295  0005  0E03               	swapf	3,w
  6296  0006  00F1               	movwf	??_isr+1
  6297  0007  080A               	movf	10,w
  6298  0008  00F2               	movwf	??_isr+2
  6299  0009  120A  158A  2C03   	ljmp	_isr
  6300                           
  6301                           	psect	functab
  6302  0023                     __pfunctab:
  6303  0023                     __fptable:
  6304  0023                     fptable:
  6305  0023  00FF               	movwf	(btemp+1)& (0+127)
  6306  0024  3000               	movlw	high fptable
  6307  0025  008A               	movwf	10
  6308  0026  087F               	movf	(btemp+1)& (0+127),w
  6309  0027  0782               	addwf	2,f
  6310  0028                     fpbase:
  6311  0028  2828               	goto	fpbase	; Call via a null pointer and you will get stuck here.
  6312  0029                     fp__putch:
  6313  0029  120A  158A  2B2C   	ljmp	_putch
  6314  002C                     __end_of__fptable:
  6315  007E                     btemp	set	126	;btemp
  6316  007E                     wtemp0	set	126
  6317                           
  6318                           	psect	config
  6319                           
  6320                           ;Config register CONFIG1 @ 0x2007
  6321                           ;	Oscillator Selection bits
  6322                           ;	FOSC = INTRC_NOCLKOUT, INTOSCIO oscillator: I/O function on RA6/OSC2/CLKOUT pin, I/O f
      +                          unction on RA7/OSC1/CLKIN
  6323                           ;	Watchdog Timer Enable bit
  6324                           ;	WDTE = OFF, WDT disabled and can be enabled by SWDTEN bit of the WDTCON register
  6325                           ;	Power-up Timer Enable bit
  6326                           ;	PWRTE = OFF, PWRT disabled
  6327                           ;	RE3/MCLR pin function select bit
  6328                           ;	MCLRE = OFF, RE3/MCLR pin function is digital input, MCLR internally tied to VDD
  6329                           ;	Code Protection bit
  6330                           ;	CP = OFF, Program memory code protection is disabled
  6331                           ;	Data Code Protection bit
  6332                           ;	CPD = OFF, Data memory code protection is disabled
  6333                           ;	Brown Out Reset Selection bits
  6334                           ;	BOREN = OFF, BOR disabled
  6335                           ;	Internal External Switchover bit
  6336                           ;	IESO = OFF, Internal/External Switchover mode is disabled
  6337                           ;	Fail-Safe Clock Monitor Enabled bit
  6338                           ;	FCMEN = OFF, Fail-Safe Clock Monitor is disabled
  6339                           ;	Low Voltage Programming Enable bit
  6340                           ;	LVP = OFF, RB3 pin has digital I/O, HV on MCLR must be used for programming
  6341                           ;	In-Circuit Debugger Mode bit
  6342                           ;	DEBUG = 0x1, unprogrammed default
  6343  2007                     	org	8199
  6344  2007  20D4               	dw	8404
  6345                           
  6346                           ;Config register CONFIG2 @ 0x2008
  6347                           ;	Brown-out Reset Selection bit
  6348                           ;	BOR4V = BOR40V, Brown-out Reset set to 4.0V
  6349                           ;	Flash Program Memory Self Write Enable bits
  6350                           ;	WRT = OFF, Write protection off
  6351  2008                     	org	8200
  6352  2008  3FFF               	dw	16383

Data Sizes:
    Strings     184
    Constant    10
    Data        0
    BSS         12
    Persistent  0
    Stack       0

Auto Spaces:
    Space          Size  Autos    Used
    COMMON           14      8      11
    BANK0            80     52      55
    BANK1            80     43      49
    BANK3            96      0       0
    BANK2            96      0       0

Pointer List with Targets:

    sprintf@f	PTR const unsigned char  size(1) Largest target is 8
		 -> STR_3(CODE[6]), STR_2(CODE[8]), 

    sprintf@ap	PTR void [1] size(1) Largest target is 2
		 -> ?_sprintf(BANK0[2]), ?_printf(COMMON[2]), 

    sprintf@wh	PTR unsigned char  size(1) Largest target is 20
		 -> main@buffer1(BANK1[20]), main@buffer(BANK1[20]), 

    pb.func	PTR FTN(unsigned char ,)void  size(1) Largest target is 1
		 -> Absolute function(), putch(), 

    pb.ptr	PTR unsigned char  size(1) Largest target is 20
		 -> NULL(NULL[0]), main@buffer1(BANK1[20]), main@buffer(BANK1[20]), 

    _doprnt@ap	PTR PTR void  size(1) Largest target is 1
		 -> sprintf@ap(BANK0[1]), printf@ap(BANK0[1]), 

    _doprnt@f	PTR const unsigned char  size(1) Largest target is 41
		 -> STR_10(CODE[38]), STR_9(CODE[41]), STR_8(CODE[40]), STR_7(CODE[2]), 
		 -> STR_6(CODE[17]), STR_5(CODE[2]), STR_4(CODE[17]), STR_3(CODE[6]), 
		 -> STR_2(CODE[8]), 

    _doprnt@pb.func	PTR FTN(unsigned char ,)void  size(1) Largest target is 1
		 -> Absolute function(), putch(), 

    _doprnt@pb.ptr	PTR unsigned char  size(1) Largest target is 20
		 -> NULL(NULL[0]), main@buffer1(BANK1[20]), main@buffer(BANK1[20]), 

    _doprnt@pb	PTR struct __prbuf size(1) Largest target is 3
		 -> sprintf@pb(BANK0[2]), printf@pb(BANK0[2]), 

    printf@f	PTR const unsigned char  size(1) Largest target is 41
		 -> STR_10(CODE[38]), STR_9(CODE[41]), STR_8(CODE[40]), STR_7(CODE[2]), 
		 -> STR_6(CODE[17]), STR_5(CODE[2]), STR_4(CODE[17]), 

    printf@ap	PTR void [1] size(1) Largest target is 2
		 -> ?_sprintf(BANK0[2]), ?_printf(COMMON[2]), 

    S1082__prbuf$func	PTR FTN(unsigned char ,)void  size(1) Largest target is 1
		 -> Absolute function(), putch(), 

    pb.func	PTR FTN(unsigned char ,)void  size(1) Largest target is 1
		 -> Absolute function(), putch(), 

    S1082__prbuf$ptr	PTR unsigned char  size(1) Largest target is 20
		 -> NULL(NULL[0]), main@buffer1(BANK1[20]), main@buffer(BANK1[20]), 

    pb.ptr	PTR unsigned char  size(1) Largest target is 20
		 -> NULL(NULL[0]), main@buffer1(BANK1[20]), main@buffer(BANK1[20]), 

    Lcd_Write_String@a	PTR unsigned char  size(2) Largest target is 512
		 -> RAM(DATA[512]), main@buffer1(BANK1[20]), main@buffer(BANK1[20]), STR_1(CODE[17]), 


Critical Paths under _main in COMMON

    _main->_Lcd_Set_Cursor
    _main->_Lcd_Write_Char
    _setup->_config_ADC
    __doprnt->___lwdiv
    ___lwmod->___lwdiv
    _division->___awdiv
    _division->___awmod
    ___fltol->___xxtofl
    ___flmul->__Umul8_16
    ___flmul->___xxtofl
    _Lcd_Write_String->_Lcd_Write_Char
    _Lcd_Write_Char->_Lcd_Port
    _Lcd_Set_Cursor->_Lcd_Cmd
    _Lcd_Init->_Lcd_Cmd
    _Lcd_Clear->_Lcd_Cmd
    _Lcd_Cmd->_Lcd_Port

Critical Paths under _isr in COMMON

    None.

Critical Paths under _main in BANK0

    _main->___fltol
    _sprintf->__doprnt
    _printf->__doprnt
    __doprnt->___lwmod
    ___lwmod->___lwdiv
    _division->___awdiv
    ___fltol->___flmul
    ___flmul->___xxtofl

Critical Paths under _isr in BANK0

    None.

Critical Paths under _main in BANK1

    None.

Critical Paths under _isr in BANK1

    None.

Critical Paths under _main in BANK3

    None.

Critical Paths under _isr in BANK3

    None.

Critical Paths under _main in BANK2

    None.

Critical Paths under _isr in BANK2

    None.

Call Graph Tables:

 ---------------------------------------------------------------------------------
 (Depth) Function   	        Calls       Base Space   Used Autos Params    Refs
 ---------------------------------------------------------------------------------
 (0) _main                                                48    48      0   12656
                                             47 BANK0      5     5      0
                                              0 BANK1     43    43      0
                          _Lcd_Clear
                           _Lcd_Init
                     _Lcd_Set_Cursor
                     _Lcd_Write_Char
                   _Lcd_Write_String
                            ___flmul
                            ___fltol
                           ___xxtofl
                           _division
                             _printf
                              _setup
                            _sprintf
 ---------------------------------------------------------------------------------
 (1) _sprintf                                              9     6      3    2851
                                             20 BANK0      9     6      3
                            __doprnt
 ---------------------------------------------------------------------------------
 (1) _setup                                                0     0      0      22
                         _config_ADC
 ---------------------------------------------------------------------------------
 (2) _config_ADC                                           3     3      0      22
                                              3 COMMON     3     3      0
 ---------------------------------------------------------------------------------
 (1) _printf                                               6     6      0    2775
                                             20 BANK0      6     6      0
                            __doprnt
 ---------------------------------------------------------------------------------
 (2) __doprnt                                             19    17      2    2336
                                              9 BANK0     11     9      2
                   Absolute function *
                            ___lwdiv
                            ___lwmod
                              _putch *
 ---------------------------------------------------------------------------------
 (3) _putch                                                1     0      1     181
                                              3 COMMON     1     0      1
 ---------------------------------------------------------------------------------
 (3) ___lwmod                                              6     2      4     311
                                              3 BANK0      6     2      4
                            ___lwdiv (ARG)
 ---------------------------------------------------------------------------------
 (3) ___lwdiv                                              8     4      4     421
                                              3 COMMON     5     1      4
                                              0 BANK0      3     3      0
 ---------------------------------------------------------------------------------
 (3) Absolute function(Fake)                               1     0      1       0
 ---------------------------------------------------------------------------------
 (1) _division                                             4     4      0    1660
                                              4 BANK0      4     4      0
                            ___awdiv
                            ___awmod
 ---------------------------------------------------------------------------------
 (2) ___awmod                                              7     3      4     793
                                              3 COMMON     5     1      4
                                              0 BANK0      2     2      0
 ---------------------------------------------------------------------------------
 (2) ___awdiv                                              9     5      4     805
                                              3 COMMON     5     1      4
                                              0 BANK0      4     4      0
 ---------------------------------------------------------------------------------
 (1) ___xxtofl                                            14    10      4     656
                                              3 COMMON     4     0      4
                                              0 BANK0     10    10      0
 ---------------------------------------------------------------------------------
 (1) ___fltol                                             11     7      4     381
                                             36 BANK0     11     7      4
                            ___flmul (ARG)
                           ___xxtofl (ARG)
 ---------------------------------------------------------------------------------
 (1) ___flmul                                             26    18      8    2569
                                             10 BANK0     26    18      8
                          __Umul8_16
                           ___xxtofl (ARG)
 ---------------------------------------------------------------------------------
 (2) __Umul8_16                                            9     7      2     799
                                              3 COMMON     4     2      2
                                              0 BANK0      5     5      0
 ---------------------------------------------------------------------------------
 (1) _Lcd_Write_String                                     4     2      2     580
                                              0 BANK0      4     2      2
                     _Lcd_Write_Char
 ---------------------------------------------------------------------------------
 (2) _Lcd_Write_Char                                       4     4      0      90
                                              4 COMMON     4     4      0
                           _Lcd_Port
 ---------------------------------------------------------------------------------
 (1) _Lcd_Set_Cursor                                       7     6      1     614
                                              7 COMMON     1     0      1
                                              0 BANK0      6     6      0
                            _Lcd_Cmd
 ---------------------------------------------------------------------------------
 (1) _Lcd_Init                                             2     2      0      66
                                              0 BANK0      2     2      0
                            _Lcd_Cmd
                           _Lcd_Port
 ---------------------------------------------------------------------------------
 (1) _Lcd_Clear                                            0     0      0      44
                            _Lcd_Cmd
 ---------------------------------------------------------------------------------
 (2) _Lcd_Cmd                                              3     3      0      44
                                              4 COMMON     3     3      0
                           _Lcd_Port
 ---------------------------------------------------------------------------------
 (3) _Lcd_Port                                             1     1      0      22
                                              3 COMMON     1     1      0
 ---------------------------------------------------------------------------------
 Estimated maximum stack depth 3
 ---------------------------------------------------------------------------------
 (Depth) Function   	        Calls       Base Space   Used Autos Params    Refs
 ---------------------------------------------------------------------------------
 (4) _isr                                                  3     3      0       0
                                              0 COMMON     3     3      0
 ---------------------------------------------------------------------------------
 Estimated maximum stack depth 4
 ---------------------------------------------------------------------------------

 Call Graph Graphs:

 _main (ROOT)
   _Lcd_Clear
     _Lcd_Cmd
       _Lcd_Port
   _Lcd_Init
     _Lcd_Cmd
       _Lcd_Port
     _Lcd_Port
   _Lcd_Set_Cursor
     _Lcd_Cmd
       _Lcd_Port
   _Lcd_Write_Char
     _Lcd_Port
   _Lcd_Write_String
     _Lcd_Write_Char
       _Lcd_Port
   ___flmul
     __Umul8_16
     ___xxtofl (ARG)
   ___fltol
     ___flmul (ARG)
       __Umul8_16
       ___xxtofl (ARG)
     ___xxtofl (ARG)
   ___xxtofl
   _division
     ___awdiv
     ___awmod
   _printf
     __doprnt
       Absolute function(Fake) *
       ___lwdiv *
       ___lwmod *
         ___lwdiv (ARG)
       _putch *
   _setup
     _config_ADC
   _sprintf
     __doprnt
       Absolute function(Fake) *
       ___lwdiv *
       ___lwmod *
         ___lwdiv (ARG)
       _putch *

 _isr (ROOT)

 Address spaces:
Name               Size   Autos  Total    Cost      Usage
BITCOMMON            E      0       0       0        0.0%
EEDATA             100      0       0       0        0.0%
NULL                 0      0       0       0        0.0%
CODE                 0      0       0       0        0.0%
COMMON               E      8       B       1       78.6%
BITSFR0              0      0       0       1        0.0%
SFR0                 0      0       0       1        0.0%
BITSFR1              0      0       0       2        0.0%
SFR1                 0      0       0       2        0.0%
STACK                0      0       0       2        0.0%
ABS                  0      0      73       3        0.0%
BITBANK0            50      0       0       4        0.0%
BITSFR3              0      0       0       4        0.0%
SFR3                 0      0       0       4        0.0%
BANK0               50     34      37       5       68.8%
BITSFR2              0      0       0       5        0.0%
SFR2                 0      0       0       5        0.0%
BITBANK1            50      0       0       6        0.0%
BANK1               50     2B      31       7       61.3%
BITBANK3            60      0       0       8        0.0%
BANK3               60      0       0       9        0.0%
BITBANK2            60      0       0      10        0.0%
BANK2               60      0       0      11        0.0%
DATA                 0      0      73      12        0.0%


Microchip Technology PIC Macro Assembler V2.31 build 20201012212115 
Symbol Table                                                                                   Tue Jul 27 10:40:53 2021

                        pc 0002               ___awdiv@sign 0021                         fsr 0004  
      __Umul8_16@word_mpld 0022                        l110 03AF                        l112 0608  
                      l131 07EE                        l125 0B2C                        l118 0634  
                      l152 07FB                        l128 0B34                        l161 0D46  
                      l137 0CB2                        l146 0B2B                        l170 0C02  
                      l164 0B86                        l149 0B4E                        l158 0D9E  
                      l191 0E5E                        l460 0DF9                        l702 0BBE  
                      l447 0EC7                        l704 0BD0                        l480 0F43  
                      l490 0F43                        l740 0FC9                        l741 0FD5  
                      l733 0FAD                        l566 0CF8                        l487 0F2E  
                      l727 0F68                        l751 0B69                        l576 0C72  
                      l729 0FFF                        l683 038C                        l695 0380  
                      l689 02F8                        l796 0BA7                        l789 076D  
                      _isr 0C03                        fsr0 0004                        indf 0000  
             ___awmod@sign 0021               ___flmul@aexp 003C               ___flmul@bexp 003D  
             ___flmul@sign 0037               ___flmul@temp 0042               ___flmul@prod 003E  
              main@buffer1 00B4               ___fltol@exp1 004E                       l2100 0CA3  
                     l2110 0CAD                       l2102 0CA5                       l2200 0EFE  
                     l2112 0CAE                       l2104 0CA8                       l2202 0F02  
                     l2210 0F1C                       l2114 0CB1                       l2106 0CA9  
                     l2050 0C73                       l2300 0256                       l2220 0F38  
                     l3020 067B                       l2108 0CAA                       l2060 0C7D  
                     l2052 0C77                       l2126 07EF                       l2310 02C4  
                     l2302 027C                       l2230 003E                       l2222 002C  
                     l2070 0C82                       l2062 0C7E                       l2054 0C7A  
                     l2320 02DC                       l2312 02C8                       l2304 02A4  
                     l2240 005A                       l2232 0043                       l2224 0033  
                     l2216 0F23                       l2208 0F0A                       l2080 0C8B  
                     l2072 0C85                       l2064 0C7F                       l2056 0C7B  
                     l2330 02FD                       l2322 02DD                       l2314 02C9  
                     l2306 02AD                       l2250 006F                       l2242 005F  
                     l2234 0048                       l2226 0039                       l2218 0F33  
                     l3018 0E50                       l2090 0C92                       l2082 0C8E  
                     l2074 0C86                       l2066 0C80                       l2058 0C7C  
                     l2332 0302                       l2340 0333                       l2324 02E1  
                     l2316 02D2                       l2308 02BB                       l2260 008B  
                     l2252 0074                       l2244 0065                       l2236 0050  
                     l2228 003D                       l2092 0C98                       l2084 0C8F  
                     l2076 0C87                       l2068 0C81                       l2350 0366  
                     l2342 0340                       l2334 0310                       l2326 02F5  
                     l2318 02D8                       l2270 00B6                       l2262 0090  
                     l2254 007C                       l2246 0069                       l2238 0052  
                     l2094 0C9B                       l2086 0C90                       l2078 0C8A  
                     l2352 0374                       l2344 034B                       l2336 0314  
                     l2280 0153                       l2272 00D3                       l2256 007E  
                     l2248 006A                       l2192 0EDE                       l1800 0DFC  
                     l2096 0C9C                       l2088 0C91                       l2354 0378  
                     l2346 035A                       l2338 032D                       l2290 01B6  
                     l2282 015C                       l2274 00EF                       l2266 0099  
                     l2258 0086                       l2194 0EF3                       l2186 0EC8  
                     l2610 0E6D                       l2602 0E5F                       l1730 0B2C  
                     l1810 0E09                       l1802 0E00                       l2098 0C9F  
                     l2356 0379                       l2348 0364                       l2292 01CF  
                     l2284 016C                       l2276 011B                       l2268 00A9  
                     l2196 0EF4                       l2188 0ED5                       l2620 0E82  
                     l2612 0E71                       l2604 0E62                       l1732 0B32  
                     l2700 0669                       l1820 0E17                       l1812 0E0C  
                     l1804 0E04                       l2358 0384                       l2294 01EC  
                     l2286 0189                       l2278 0137                       l2198 0EFC  
                     l2630 0EA5                       l2622 0E85                       l2614 0E76  
                     l2606 0E66                       l2710 06A1                       l2702 0686  
                     l1830 0E20                       l1822 0E1A                       l1814 0E0D  
                     l1806 0E07                       l1736 0B27                       l2296 0219  
                     l2288 0199                       l2640 0EBE                       l2632 0EAB  
                     l2624 0E8C                       l2616 0E7A                       l2608 0E6B  
                     l2720 06BF                       l2704 0694                       l1840 0E2E  
                     l1832 0E22                       l1824 0E1B                       l1816 0E0F  
                     l1808 0E08                       l2800 0B93                       l2298 0229  
                     l2642 0EC3                       l2634 0EAC                       l2626 0E90  
                     l2618 0E7C                       l2650 0DA6                       l2810 07DC  
                     l1770 0C49                       l2730 06EC                       l2722 06C9  
                     l2706 0698                       l1850 0E39                       l1842 0E2F  
                     l1834 0E26                       l1826 0E1C                       l1818 0E13  
                     l2802 0BA1                       l2636 0EB3                       l2628 0E94  
                     l2660 0DBC                       l2652 0DAB                       l2812 07E5  
                     l2580 0CBD                       l1780 0C68                       l1772 0C4D  
                     l1764 0C37                       l2740 073E                       l2724 06CF  
                     l2732 06F2                       l2716 06A3                       l2708 069C  
                     l2820 0B5B                       l1860 0E45                       l1852 0E3D  
                     l1844 0E32                       l1836 0E2A                       l1828 0E1F  
                     l2900 04B8                       l1790 0B76                       l2830 0F60  
                     l2638 0EB9                       l2670 0DD8                       l2662 0DBF  
                     l2654 0DAD                       l2646 0D9F                       l2806 0771  
                     l2590 0CE0                       l2582 0CC0                       l1774 0C51  
                     l1766 0C3F                       l1782 0C6E                       l2742 0746  
                     l2734 06F9                       l2726 06D7                       l2814 0B52  
                     l1862 0E46                       l1854 0E40                       l1846 0E33  
                     l1838 0E2D                       l2910 04EE                       l2902 04C6  
                     l1880 0B4B                       l1872 0B36                       l2760 0D0A  
                     l1792 0B7C                       l2840 0F8B                       l2832 0F70  
                     l2824 0F47                       l2680 0DF5                       l2672 0DDE  
                     l2664 0DC6                       l2656 0DB1                       l2648 0DA2  
                     l2808 07D3                       l2592 0CE6                       l2584 0CC7  
                     l2576 0CB3                       l1776 0C5B                       l1768 0C42  
                     l2736 0729                       l2744 074C                       l2728 06E4  
                     l2816 0B53                       l1856 0E41                       l1848 0E35  
                     l2920 051A                       l2912 04F2                       l2904 04CC  
                     l1874 0B39                       l2762 0D1B                       l2770 0D60  
                     l1794 0B7F                       l1786 0B6B                       l1970 0BB8  
                     l2850 0FBF                       l2842 0F92                       l2826 0F4C  
                     l2674 0DE5                       l2666 0DCA                       l2658 0DB6  
                     l2594 0CE7                       l2586 0CCB                       l2578 0CB7  
                     l1778 0C61                       l2738 0731                       l2690 064A  
                     l2746 0757                       l2818 0B57                       l1858 0E42  
                     l1866 0E48                       l2930 0558                       l2922 0528  
                     l2914 0500                       l2906 04DA                       l1876 0B3F  
                     l2764 0D21                       l2756 0CF9                       l2780 0D8B  
                     l2772 0D65                       l1796 0B83                       l1788 0B73  
                     l1972 0BC7                       l1964 0BAB                       l2860 0FF2  
                     l2852 0FC3                       l2844 0F96                       l2836 0F79  
                     l2828 0F50                       l2668 0DCE                       l2676 0DEB  
                     l2596 0CEE                       l2588 0CCF                       l2748 076B  
                     l2692 0659                       l2684 063B                       l2940 0584  
                     l2932 055E                       l2924 052E                       l2916 0506  
                     l2908 04E0                       l1878 0B42                       l2758 0CFF  
                     l2782 0D90                       l2774 0D6B                       l2766 0D4A  
                     l2790 0BE8                       l1974 0BCC                       l1966 0BAD  
                     l2862 0FF6                       l2854 0FCD                       l2846 0FA4  
                     l2838 0F7E                       l2678 0DF0                       l2598 0CF4  
                     l2694 0661                       l2686 063C                       l1798 0DFB  
                     l2950 05BC                       l2942 0592                       l2934 056C  
                     l2926 0544                       l2918 0514                       l2870 0392  
                     l2784 0D96                       l2768 0D4F                       l2776 0D74  
                     l2792 0BF0                       l1968 0BB4                       l2864 0FF7  
                     l2856 0FD7                       l2848 0FB4                       l2688 0642  
                     l2696 0668                       l2960 05F4                       l2952 05C4  
                     l2944 0598                       l2936 0570                       l2928 054A  
                     l2880 044E                       l2872 0397                       l2778 0D7A  
                     l2786 0BD1                       l2858 0FED                       l2794 0B8A  
                     l2970 062A                       l2962 060E                       l2954 05CC  
                     l2946 05AC                       l2938 057E                       l2890 0492  
                     l2882 0465                       l2874 039C                       l2788 0BD6  
                     l2796 0B8E                       l2964 0614                       l2956 05DA  
                     l2948 05B4                       l2892 04A0                       l2884 0471  
                     l2876 03A4                       l2868 038D                       l2798 0B8F  
                     l2966 061A                       l2958 05EE                       l2894 04A6  
                     l2886 047C                       l2878 0437                       l2968 0624  
                     l2896 04AD                       l2888 0487                       l2898 04B0  
                     _ADIF 0066                       ?_isr 0070                       STR_1 08B3  
                     STR_2 08C4                       STR_3 08CC                       STR_4 0891  
                     STR_5 088F                       STR_6 08A2                       STR_7 088F  
                     STR_8 0843                       STR_9 081A                       u2000 0262  
                     u1200 0B32                       u1201 0B31                       u2011 026E  
                     u2100 02F5                       u2020 028A                       u2012 0275  
                     u1300 0C51                       u2101 02F4                       u2013 027C  
                     u2005 025D                       u1301 0C50                       u2110 02FC  
                     u1310 0C5B                       u2111 02FB                       u2031 0296  
                     u1311 0C5A                       u2120 0302                       u2032 029D  
                     u2121 0301                       u2033 02A4                       u2025 0285  
                     u2130 0314                       u1330 0C6E                       u2131 0313  
                     u1331 0C6D                       u1315 0C57                       u2140 0323  
                     u2060 02C8                       u2061 02C7                       u2045 02A6  
                     u1325 0C62                       u2150 0340                       u2151 033F  
                     u2055 02BD                       u3007 04C0                       u2160 035A  
                     u2080 02DC                       u1280 0C3F                       u2161 0359  
                     u2145 031E                       u2081 02DB                       u1281 0C3E  
                     u3017 04D4                       u1530 0BB8                       u2170 0378  
                     u2090 02E1                       u2410 0CCF                       u1531 0BB7  
                     u2171 0377                       u2155 033C                       u2091 02E0  
                     u2075 02CB                       u2411 0CCE                       u3107 058C  
                     u3027 04E8                       u2500 0E94                       u2165 0356  
                     u2501 0E93                       u2405 0CC1                       u3117 05A0  
                     u3037 04FA                       u1550 0BCC                       u1710 0ED5  
                     u2430 0CE0                       u3207 0D05                       u1551 0BCB  
                     u1711 0ED4                       u2431 0CDF                       u1295 0C43  
                     u3127 05D4                       u3047 050E                       u1800 0F38  
                     u1720 0EEC                       u2520 0EA5                       u2600 0DCE  
                     u3217 0D16                       u1545 0BBF                       u1801 0F37  
                     u2521 0EA4                       u2601 0DCD                       u2425 0CD0  
                     u3137 05E8                       u3057 0522                       u1810 003D  
                     u1730 0F02                       u2610 0DD8                       u2450 0CF4  
                     u3227 0D25                       u1811 003C                       u1731 0F01  
                     u2515 0E95                       u2611 0DD7                       u2451 0CF3  
                     u2435 0CDC                       u3147 05FC                       u3067 053E  
                     u1820 0043                       u1740 0F09                       u2540 0EB9  
                     u2460 0E66                       u2700 06CF                       u3237 0B46  
                     u1901 00FD                       u1821 0042                       u1741 0F08  
                     u1725 0EE7                       u2541 0EB8                       u2525 0EA1  
                     u2461 0E65                       u2445 0CE8                       u2701 06CE  
                     u3157 0E02                       u3077 0552                       u1902 0104  
                     u1830 0048                       u2550 0EBE                       u2470 0E71  
                     u2630 0DEB                       u2390 0CBD                       u2710 06D7  
                     u1911 0129                       u1903 010B                       u1831 0047  
                     u2551 0EBD                       u2535 0EAD                       u2471 0E70  
                     u2631 0DEA                       u2615 0DD4                       u2391 0CBC  
                     u2711 06D6                       u3167 0E15                       u3087 0566  
                     u1912 0130                       u1840 0069                       u1760 0F1B  
                     u2800 0F4C                       u2480 0E82                       u2640 0DF0  
                     u2560 0DA6                       u2720 0731                       u1921 0145  
                     u1913 0137                       u1841 0068                       u1761 0F1A  
                     u2801 0F4B                       u2481 0E81                       u2641 0DEF  
                     u2625 0DDF                       u2561 0DA5                       u2721 0730  
                     u3177 0E28                       u3097 0578                       u1922 014C  
                     u1850 006F                       u1770 0F22                       u2810 0F50  
                     u2570 0DB1                       u2730 0757                       u2650 0642  
                     u1923 0153                       u1851 006E                       u1771 0F21  
                     u1755 0F0B                       u2811 0F4F                       u2571 0DB0  
                     u2731 0756                       u2651 0641                       u3187 0E3B  
                     u1860 0074                       u2900 0FCD                       u2820 0F70  
                     u2580 0DBC                       u2740 076B                       u2660 064A  
                     u3197 0B81                       u1941 017B                       u1861 0073  
                     u2901 0FCC                       u2821 0F6F                       u2581 0DBB  
                     u2741 076A                       u2661 0649                       u2750 0D4F  
                     u1942 0182                       u1870 008B                       u1790 0F33  
                     u2910 0FE2                       u2670 0698                       u2751 0D4E  
                     u1951 01A8                       u1943 0189                       u1935 0155  
                     u1871 008A                       u1791 0F32                       u2495 0E86  
                     u2671 0697                       u1952 01AF                       u1880 0090  
                     u2920 0FF2                       u2840 0F91                       u2680 06BE  
                     u1953 01B6                       u1881 008F                       u1785 0F25  
                     u2921 0FF1                       u2841 0F90                       u2681 06BD  
                     u2770 0D7A                       u2930 0FF6                       u2690 06C9  
                     u2771 0D79                       u1971 01DE                       u1891 00E1  
                     u2931 0FF5                       u2915 0FDD                       u2835 0F83  
                     u2595 0DC0                       u2691 06C8                       u1972 01E5  
                     u1892 00E8                       u2860 0FB3                       u2940 04A6  
                     u2765 0D57                       u1981 020B                       u1973 01EC  
                     u1965 01B8                       u1893 00EF                       u2861 0FB2  
                     u2685 06BA                       u2941 04A5                       u2790 0C02  
                     u1982 0212                       u2950 060E                       u2791 0C01  
                     u1991 0238                       u1983 0219                       u2855 0FA5  
                     u2951 060D                       u1992 023F                       u2880 0FC3  
                     u2960 061A                       u2785 0D82                       u1993 0246  
                     u2881 0FC2                       u2961 0619                       u2890 0FC9  
                     u2970 062A                       u2891 0FC8                       u2875 0FB8  
                     u2971 0629                       _RCIF 0065                       u2987 049A  
                     u2997 04AA                       _TXIF 0064          ?_Lcd_Write_String 0020  
                     _dato 0054                       _main 038D                       btemp 007E  
                     start 000C         ??_Lcd_Write_String 0078            __end_of_Lcd_Cmd 0B4F  
                    ??_isr 0070              ___fltol@sign1 004D                      ?_main 0070  
          __end_of___awdiv 0EC8             config_ADC@frec 0075                      STR_10 086B  
          __end_of___awmod 0DFA            __end_of___flmul 038D            __end_of___fltol 0F44  
                    _ANSEL 0188            ___awdiv@divisor 0073            __end_of___lwdiv 0CF9  
                    i1l105 0C30            __end_of___lwmod 0C73            ___awdiv@counter 0020  
                    _RCREG 001A                      _SPBRG 0099                      _PORTA 0005  
                    _PORTB 0006                      _PORTC 0007                      _PORTD 0008  
                    _PORTE 0009            __end_of__doprnt 076E    __size_of_Lcd_Set_Cursor 0058  
                    _TRISD 0088                      _TRISE 0089                      _TXREG 0019  
                    _dato1 0055            __end_of_dpowers 081A                      _setup 0C73  
                    _putch 0B2C                      fpbase 0028                      pclath 000A  
                    status 0003                      wtemp0 007E            __end_of_sprintf 0BA8  
         __end_of_Lcd_Init 0D47           __end_of_Lcd_Port 0B2C            __initialization 000F  
             __end_of_main 0638                     ??_main 004F         __size_of_Lcd_Clear 000D  
                   _ADRESH 001E           ___awdiv@dividend 0075                     ?_setup 0070  
                   ?_putch 0073                     i1l2410 0C12                     i1l2412 0C16  
                   i1l2420 0C2E                     i1l2414 0C1D                     i1l2406 0C03  
                   i1l2416 0C26                     i1l2408 0C09                     i1l2418 0C28  
                   u232_20 0C09                     u232_21 0C08                     u233_20 0C12  
                   u233_21 0C11                     u234_20 0C26                     u234_21 0C25  
                ??_Lcd_Cmd 0074                     _SPBRGH 009A    __size_of_Lcd_Write_Char 001D  
         __end_of__fptable 002C           __end_of___xxtofl 1000           __end_of_division 07EF  
                ??___awdiv 0077                  ??___awmod 0077                  ??___flmul 0032  
                ??___fltol 0048                  ??___lwdiv 0077                  ??___lwmod 0027  
                ??__doprnt 002B           ___awdiv@quotient 0022            ___awmod@divisor 0073  
             __doprnt@flag 002E            ___awmod@counter 0020                     _printf 0B4F  
                   _volt01 00D0                     _volt02 00CF               __doprnt@prec 002F  
                   fptable 0023                     fptotal 0002         __size_of__Umul8_16 0029  
                   saved_w 007E                  ??_sprintf 0037            Lcd_Set_Cursor@a 0022  
          Lcd_Set_Cursor@b 0077            Lcd_Set_Cursor@y 0024            Lcd_Set_Cursor@z 0023  
             ___xxtofl@arg 0026               ___xxtofl@exp 0025               ___xxtofl@val 0073  
  __end_of__initialization 001F          __end_of_Lcd_Clear 07FC                 ___fltol@f1 0044  
           __pcstackCOMMON 0070              __end_of_setup 0CB3              __end_of_putch 0B35  
            division@valor 0027             _Lcd_Set_Cursor 0D47                  ?_Lcd_Init 0070  
                ?_Lcd_Port 0070                 __doprnt@ap 002A                 __doprnt@pb 0033  
                  ??_setup 0076                    ??_putch 0074                 __pbssBANK0 0054  
               __pbssBANK1 00CB          __end_of__Umul8_16 0BD1                 __pmaintext 038D  
               __pintentry 0004  __size_of_Lcd_Write_String 0032     __end_of_Lcd_Set_Cursor 0D9F  
                  ?_printf 0070                 _config_ADC 0DFA                  ?___xxtofl 0073  
               ??_Lcd_Init 0020                 ??_Lcd_Port 0073                 __stringtab 0800  
                ?_division 0070             _Lcd_Write_Char 0B6A                    _Lcd_Cmd 0B35  
                  ___awdiv 0E5F                    ___awmod 0D9F                    ___flmul 002C  
                  ___fltol 0EC8                    ___lwdiv 0CB3                    ___lwmod 0C37  
                  __doprnt 0638                    _decenas 00CD            ?_Lcd_Set_Cursor 0077  
                  __ptext1 0B87                    __ptext2 0C73                    __ptext3 0DFA  
                  __ptext4 0B4F                    __ptext5 0638                    __ptext6 0B2C  
                  __ptext7 0C37                    __ptext8 0CB3                    __ptext9 076E  
          __size_of_printf 001B                    _dpowers 0810               __size_of_isr 0034  
               ??___xxtofl 0020           ___awmod@dividend 0075                    _residuo 0078  
                  _sprintf 0B87     __end_of_Lcd_Write_Char 0B87       end_of_initialization 001F  
               ??_division 0024                  _RCSTAbits 0018                    printf@f 0037  
                Lcd_Port@a 0073                  _PORTEbits 0009                ?_config_ADC 0070  
            ___xxtofl@sign 0024                  _TRISAbits 0085            ?_Lcd_Write_Char 0070  
        Lcd_Write_String@a 0020          Lcd_Write_String@i 0022                ___flmul@grs 0038  
               main@buffer 00A0                 main@answer 00CA                  _TXSTAbits 0098  
                _Lcd_Clear 07EF           _Lcd_Write_String 0BD1                _BAUDCTLbits 0187  
           __end_of_printf 0B6A        start_initialization 000F                __end_of_isr 0C37  
        __size_of_Lcd_Init 004E          __size_of_Lcd_Port 0006        __size_of_config_ADC 0065  
               ?_Lcd_Clear 0070                  __Umul8_16 0BA8                __doprnt@val 0030  
          Lcd_Write_Char@a 0075            Lcd_Write_Char@y 0077                   ??_printf 0034  
                ___flmul@a 002E                  ___flmul@b 002A                __pbssCOMMON 0078  
                ___latbits 0002              __pcstackBANK0 0020              __pcstackBANK1 00A0  
        __size_of__fptable 0009          __size_of___xxtofl 00BC                   ?_Lcd_Cmd 0070  
                __doprnt@c 0032                  __doprnt@f 0029          __size_of_division 0081  
         ___lwdiv@dividend 0075           ??_Lcd_Set_Cursor 0020                  __pfunctab 0023  
                 ?___awdiv 0073                   ?___awmod 0073                   ?___flmul 002A  
                 ?___fltol 0044                 ?__Umul8_16 0073                   ?___lwdiv 0073  
                 ?___lwmod 0023                   ?__doprnt 0029                  _dividendo 0056  
                __pstrings 0800           ___lwdiv@quotient 0021                   ?_sprintf 0034  
           __size_of_setup 0040             __size_of_putch 0009          interrupt_function 0004  
                 _PIE1bits 008C                   Lcd_Cmd@a 0076                   _PIR1bits 000C  
              ??_Lcd_Clear 0077                 _ADCON0bits 001F                __stringbase 080F  
               _ADCON1bits 009F                  main@dato1 00C8               ??_config_ADC 0073  
         ??_Lcd_Write_Char 0074                  _voltaje_b 007A                  _voltaje_c 0079  
                 _Lcd_Init 0CF9                   _Lcd_Port 0B26   __end_of_Lcd_Write_String 0C03  
         __size_of_Lcd_Cmd 001A         __end_of_config_ADC 0E5F                ??__Umul8_16 0075  
         __size_of___awdiv 0069           __size_of___awmod 005B           __size_of___flmul 0361  
         __size_of___fltol 007C           __size_of___lwdiv 0046           __size_of___lwmod 003C  
         __size_of__doprnt 0136         __end_of__stringtab 0810                   __fptable 0023  
                 ___xxtofl 0F44            ___lwdiv@divisor 0073                   _centenas 00CE  
          ___lwdiv@counter 0020                   __ptext10 0D9F                   __ptext11 0E5F  
                 __ptext20 07EF                   __ptext12 0F44                   __ptext21 0B35  
                 __ptext13 0EC8                   __ptext22 0B26                   __ptext14 002C  
                 __ptext23 0C03                   __ptext15 0BA8                   __ptext16 0BD1  
                 __ptext17 0B6A                   __ptext18 0D47                   __ptext19 0CF9  
                 _division 076E                   _contador 00CB           __size_of_sprintf 0021  
            __size_of_main 02AB                   _unidades 00CC                   fp__putch 0029  
                 main@dato 00C9                  putch@data 0073                 _INTCONbits 000B  
       Lcd_Write_Char@temp 0076                   intlevel1 0023                  sprintf@ap 003A  
                sprintf@pb 003B                  sprintf@wh 0039           ___lwmod@dividend 0025  
                stringcode 080A                 _OSCCONbits 008F                   printf@ap 0036  
                 printf@pb 0038         Lcd_Set_Cursor@temp 0025     __Umul8_16@multiplicand 0073  
                 sprintf@f 0034            ___lwmod@divisor 0023            ___lwmod@counter 0028  
                 stringdir 080A                   stringtab 0800       __Umul8_16@multiplier 0024  
        __Umul8_16@product 0020  
